
sysroot/bin/kernel.bin:     file format elf32-i386


Disassembly of section .text:

c0101000 <higher_half_stub>:
c0101000:	c7 05 00 90 10 c0 00 	movl   $0x0,0xc0109000
c0101007:	00 00 00 
c010100a:	0f 01 3d 00 00 00 00 	invlpg 0x0
c0101011:	bc 00 57 12 c0       	mov    $0xc0125700,%esp
c0101016:	81 c3 00 00 00 c0    	add    $0xc0000000,%ebx
c010101c:	53                   	push   %ebx
c010101d:	50                   	push   %eax
c010101e:	e8 02 00 00 00       	call   c0101025 <kernel_main>
c0101023:	fa                   	cli
c0101024:	f4                   	hlt

c0101025 <kernel_main>:
c0101025:	55                   	push   %ebp
c0101026:	89 e5                	mov    %esp,%ebp
c0101028:	83 ec 08             	sub    $0x8,%esp
c010102b:	e8 b7 00 00 00       	call   c01010e7 <k_dev_serial_init>
c0101030:	83 ec 08             	sub    $0x8,%esp
c0101033:	68 00 70 10 c0       	push   $0xc0107000
c0101038:	68 06 70 10 c0       	push   $0xc0107006
c010103d:	e8 1e 09 00 00       	call   c0101960 <k_info>
c0101042:	83 c4 10             	add    $0x10,%esp
c0101045:	e8 69 10 00 00       	call   c01020b3 <k_mem_gdt_init>
c010104a:	83 ec 08             	sub    $0x8,%esp
c010104d:	6a 28                	push   $0x28
c010104f:	6a 20                	push   $0x20
c0101051:	e8 f2 26 00 00       	call   c0103748 <k_int_pic_init>
c0101056:	83 c4 10             	add    $0x10,%esp
c0101059:	e8 bf 1e 00 00       	call   c0102f1d <k_int_idt_init>
c010105e:	e8 87 1f 00 00       	call   c0102fea <k_int_isr_init>
c0101063:	e8 fc 23 00 00       	call   c0103464 <k_int_irq_init>
c0101068:	e8 c9 28 00 00       	call   c0103936 <k_int_syscall_init>
c010106d:	83 ec 0c             	sub    $0xc,%esp
c0101070:	ff 75 0c             	push   0xc(%ebp)
c0101073:	e8 77 14 00 00       	call   c01024ef <k_mem_pmm_init>
c0101078:	83 c4 10             	add    $0x10,%esp
c010107b:	e8 73 11 00 00       	call   c01021f3 <k_mem_paging_init>
c0101080:	e8 15 1b 00 00       	call   c0102b9a <k_mem_heap_init>
c0101085:	e8 31 02 00 00       	call   c01012bb <k_dev_pci_init>
c010108a:	e8 c6 01 00 00       	call   c0101255 <k_dev_pit_init>
c010108f:	e8 04 05 00 00       	call   c0101598 <k_dev_timer_init>
c0101094:	e8 29 30 00 00       	call   c01040c2 <k_fs_vfs_init>
c0101099:	e8 46 3a 00 00       	call   c0104ae4 <k_fs_tar_init>
c010109e:	83 ec 0c             	sub    $0xc,%esp
c01010a1:	68 1c 70 10 c0       	push   $0xc010701c
c01010a6:	e8 66 30 00 00       	call   c0104111 <k_fs_vfs_create_entry>
c01010ab:	83 c4 10             	add    $0x10,%esp
c01010ae:	e8 59 3e 00 00       	call   c0104f0c <k_mod_symtable_init>
c01010b3:	83 ec 0c             	sub    $0xc,%esp
c01010b6:	ff 75 0c             	push   0xc(%ebp)
c01010b9:	e8 a6 3b 00 00       	call   c0104c64 <k_mod_load_modules>
c01010be:	83 c4 10             	add    $0x10,%esp
c01010c1:	83 ec 04             	sub    $0x4,%esp
c01010c4:	68 21 70 10 c0       	push   $0xc0107021
c01010c9:	68 25 70 10 c0       	push   $0xc0107025
c01010ce:	68 2f 70 10 c0       	push   $0xc010702f
c01010d3:	e8 83 32 00 00       	call   c010435b <k_fs_vfs_mount>
c01010d8:	83 c4 10             	add    $0x10,%esp
c01010db:	e8 a9 2a 00 00       	call   c0103b89 <k_proc_process_init>
c01010e0:	e8 e8 06 00 00       	call   c01017cd <halt>
c01010e5:	eb f9                	jmp    c01010e0 <kernel_main+0xbb>

c01010e7 <k_dev_serial_init>:
c01010e7:	55                   	push   %ebp
c01010e8:	89 e5                	mov    %esp,%ebp
c01010ea:	83 ec 08             	sub    $0x8,%esp
c01010ed:	83 ec 08             	sub    $0x8,%esp
c01010f0:	6a 00                	push   $0x0
c01010f2:	68 f9 03 00 00       	push   $0x3f9
c01010f7:	e8 21 06 00 00       	call   c010171d <outb>
c01010fc:	83 c4 10             	add    $0x10,%esp
c01010ff:	83 ec 08             	sub    $0x8,%esp
c0101102:	68 80 00 00 00       	push   $0x80
c0101107:	68 fb 03 00 00       	push   $0x3fb
c010110c:	e8 0c 06 00 00       	call   c010171d <outb>
c0101111:	83 c4 10             	add    $0x10,%esp
c0101114:	83 ec 08             	sub    $0x8,%esp
c0101117:	6a 03                	push   $0x3
c0101119:	68 f8 03 00 00       	push   $0x3f8
c010111e:	e8 fa 05 00 00       	call   c010171d <outb>
c0101123:	83 c4 10             	add    $0x10,%esp
c0101126:	83 ec 08             	sub    $0x8,%esp
c0101129:	6a 00                	push   $0x0
c010112b:	68 f9 03 00 00       	push   $0x3f9
c0101130:	e8 e8 05 00 00       	call   c010171d <outb>
c0101135:	83 c4 10             	add    $0x10,%esp
c0101138:	83 ec 08             	sub    $0x8,%esp
c010113b:	6a 03                	push   $0x3
c010113d:	68 fb 03 00 00       	push   $0x3fb
c0101142:	e8 d6 05 00 00       	call   c010171d <outb>
c0101147:	83 c4 10             	add    $0x10,%esp
c010114a:	83 ec 08             	sub    $0x8,%esp
c010114d:	68 c7 00 00 00       	push   $0xc7
c0101152:	68 fa 03 00 00       	push   $0x3fa
c0101157:	e8 c1 05 00 00       	call   c010171d <outb>
c010115c:	83 c4 10             	add    $0x10,%esp
c010115f:	83 ec 08             	sub    $0x8,%esp
c0101162:	6a 0b                	push   $0xb
c0101164:	68 fc 03 00 00       	push   $0x3fc
c0101169:	e8 af 05 00 00       	call   c010171d <outb>
c010116e:	83 c4 10             	add    $0x10,%esp
c0101171:	83 ec 08             	sub    $0x8,%esp
c0101174:	6a 1e                	push   $0x1e
c0101176:	68 fc 03 00 00       	push   $0x3fc
c010117b:	e8 9d 05 00 00       	call   c010171d <outb>
c0101180:	83 c4 10             	add    $0x10,%esp
c0101183:	83 ec 08             	sub    $0x8,%esp
c0101186:	68 ae 00 00 00       	push   $0xae
c010118b:	68 f8 03 00 00       	push   $0x3f8
c0101190:	e8 88 05 00 00       	call   c010171d <outb>
c0101195:	83 c4 10             	add    $0x10,%esp
c0101198:	83 ec 0c             	sub    $0xc,%esp
c010119b:	68 f8 03 00 00       	push   $0x3f8
c01011a0:	e8 d0 05 00 00       	call   c0101775 <inb>
c01011a5:	83 c4 10             	add    $0x10,%esp
c01011a8:	3c ae                	cmp    $0xae,%al
c01011aa:	74 07                	je     c01011b3 <k_dev_serial_init+0xcc>
c01011ac:	b8 01 00 00 00       	mov    $0x1,%eax
c01011b1:	eb 17                	jmp    c01011ca <k_dev_serial_init+0xe3>
c01011b3:	83 ec 08             	sub    $0x8,%esp
c01011b6:	6a 0f                	push   $0xf
c01011b8:	68 fc 03 00 00       	push   $0x3fc
c01011bd:	e8 5b 05 00 00       	call   c010171d <outb>
c01011c2:	83 c4 10             	add    $0x10,%esp
c01011c5:	b8 00 00 00 00       	mov    $0x0,%eax
c01011ca:	c9                   	leave
c01011cb:	c3                   	ret

c01011cc <k_dev_serial_received>:
c01011cc:	55                   	push   %ebp
c01011cd:	89 e5                	mov    %esp,%ebp
c01011cf:	83 ec 08             	sub    $0x8,%esp
c01011d2:	83 ec 0c             	sub    $0xc,%esp
c01011d5:	68 fd 03 00 00       	push   $0x3fd
c01011da:	e8 96 05 00 00       	call   c0101775 <inb>
c01011df:	83 c4 10             	add    $0x10,%esp
c01011e2:	83 e0 01             	and    $0x1,%eax
c01011e5:	c9                   	leave
c01011e6:	c3                   	ret

c01011e7 <k_dev_serial_read>:
c01011e7:	55                   	push   %ebp
c01011e8:	89 e5                	mov    %esp,%ebp
c01011ea:	83 ec 08             	sub    $0x8,%esp
c01011ed:	90                   	nop
c01011ee:	e8 d9 ff ff ff       	call   c01011cc <k_dev_serial_received>
c01011f3:	84 c0                	test   %al,%al
c01011f5:	74 f7                	je     c01011ee <k_dev_serial_read+0x7>
c01011f7:	83 ec 0c             	sub    $0xc,%esp
c01011fa:	68 f8 03 00 00       	push   $0x3f8
c01011ff:	e8 71 05 00 00       	call   c0101775 <inb>
c0101204:	83 c4 10             	add    $0x10,%esp
c0101207:	c9                   	leave
c0101208:	c3                   	ret

c0101209 <k_dev_serial_is_transmit_empty>:
c0101209:	55                   	push   %ebp
c010120a:	89 e5                	mov    %esp,%ebp
c010120c:	83 ec 08             	sub    $0x8,%esp
c010120f:	83 ec 0c             	sub    $0xc,%esp
c0101212:	68 fd 03 00 00       	push   $0x3fd
c0101217:	e8 59 05 00 00       	call   c0101775 <inb>
c010121c:	83 c4 10             	add    $0x10,%esp
c010121f:	83 e0 20             	and    $0x20,%eax
c0101222:	c9                   	leave
c0101223:	c3                   	ret

c0101224 <k_dev_serial_write>:
c0101224:	55                   	push   %ebp
c0101225:	89 e5                	mov    %esp,%ebp
c0101227:	83 ec 18             	sub    $0x18,%esp
c010122a:	8b 45 08             	mov    0x8(%ebp),%eax
c010122d:	88 45 f4             	mov    %al,-0xc(%ebp)
c0101230:	90                   	nop
c0101231:	e8 d3 ff ff ff       	call   c0101209 <k_dev_serial_is_transmit_empty>
c0101236:	84 c0                	test   %al,%al
c0101238:	74 f7                	je     c0101231 <k_dev_serial_write+0xd>
c010123a:	0f b6 45 f4          	movzbl -0xc(%ebp),%eax
c010123e:	0f b6 c0             	movzbl %al,%eax
c0101241:	83 ec 08             	sub    $0x8,%esp
c0101244:	50                   	push   %eax
c0101245:	68 f8 03 00 00       	push   $0x3f8
c010124a:	e8 ce 04 00 00       	call   c010171d <outb>
c010124f:	83 c4 10             	add    $0x10,%esp
c0101252:	90                   	nop
c0101253:	c9                   	leave
c0101254:	c3                   	ret

c0101255 <k_dev_pit_init>:
c0101255:	55                   	push   %ebp
c0101256:	89 e5                	mov    %esp,%ebp
c0101258:	83 ec 08             	sub    $0x8,%esp
c010125b:	83 ec 08             	sub    $0x8,%esp
c010125e:	6a 3c                	push   $0x3c
c0101260:	6a 43                	push   $0x43
c0101262:	e8 b6 04 00 00       	call   c010171d <outb>
c0101267:	83 c4 10             	add    $0x10,%esp
c010126a:	83 ec 0c             	sub    $0xc,%esp
c010126d:	68 a9 04 00 00       	push   $0x4a9
c0101272:	e8 06 00 00 00       	call   c010127d <k_dev_pit_set_phase>
c0101277:	83 c4 10             	add    $0x10,%esp
c010127a:	90                   	nop
c010127b:	c9                   	leave
c010127c:	c3                   	ret

c010127d <k_dev_pit_set_phase>:
c010127d:	55                   	push   %ebp
c010127e:	89 e5                	mov    %esp,%ebp
c0101280:	83 ec 08             	sub    $0x8,%esp
c0101283:	e8 4c 05 00 00       	call   c01017d4 <cli>
c0101288:	8b 45 08             	mov    0x8(%ebp),%eax
c010128b:	0f b6 c0             	movzbl %al,%eax
c010128e:	83 ec 08             	sub    $0x8,%esp
c0101291:	50                   	push   %eax
c0101292:	6a 40                	push   $0x40
c0101294:	e8 84 04 00 00       	call   c010171d <outb>
c0101299:	83 c4 10             	add    $0x10,%esp
c010129c:	8b 45 08             	mov    0x8(%ebp),%eax
c010129f:	c1 e8 08             	shr    $0x8,%eax
c01012a2:	0f b6 c0             	movzbl %al,%eax
c01012a5:	83 ec 08             	sub    $0x8,%esp
c01012a8:	50                   	push   %eax
c01012a9:	6a 40                	push   $0x40
c01012ab:	e8 6d 04 00 00       	call   c010171d <outb>
c01012b0:	83 c4 10             	add    $0x10,%esp
c01012b3:	e8 23 05 00 00       	call   c01017db <sti>
c01012b8:	90                   	nop
c01012b9:	c9                   	leave
c01012ba:	c3                   	ret

c01012bb <k_dev_pci_init>:
c01012bb:	55                   	push   %ebp
c01012bc:	89 e5                	mov    %esp,%ebp
c01012be:	53                   	push   %ebx
c01012bf:	83 ec 24             	sub    $0x24,%esp
c01012c2:	c7 45 f4 00 00 00 00 	movl   $0x0,-0xc(%ebp)
c01012c9:	e9 3f 01 00 00       	jmp    c010140d <k_dev_pci_init+0x152>
c01012ce:	c7 45 f0 00 00 00 00 	movl   $0x0,-0x10(%ebp)
c01012d5:	e9 22 01 00 00       	jmp    c01013fc <k_dev_pci_init+0x141>
c01012da:	8b 45 f0             	mov    -0x10(%ebp),%eax
c01012dd:	0f b6 d0             	movzbl %al,%edx
c01012e0:	8b 45 f4             	mov    -0xc(%ebp),%eax
c01012e3:	0f b6 c0             	movzbl %al,%eax
c01012e6:	6a 00                	push   $0x0
c01012e8:	6a 00                	push   $0x0
c01012ea:	52                   	push   %edx
c01012eb:	50                   	push   %eax
c01012ec:	e8 33 01 00 00       	call   c0101424 <k_dev_pci_read_word>
c01012f1:	83 c4 10             	add    $0x10,%esp
c01012f4:	66 89 45 ee          	mov    %ax,-0x12(%ebp)
c01012f8:	66 83 7d ee ff       	cmpw   $0xffff,-0x12(%ebp)
c01012fd:	0f 84 f5 00 00 00    	je     c01013f8 <k_dev_pci_init+0x13d>
c0101303:	8b 45 f0             	mov    -0x10(%ebp),%eax
c0101306:	0f b6 d0             	movzbl %al,%edx
c0101309:	8b 45 f4             	mov    -0xc(%ebp),%eax
c010130c:	0f b6 c0             	movzbl %al,%eax
c010130f:	6a 02                	push   $0x2
c0101311:	6a 00                	push   $0x0
c0101313:	52                   	push   %edx
c0101314:	50                   	push   %eax
c0101315:	e8 0a 01 00 00       	call   c0101424 <k_dev_pci_read_word>
c010131a:	83 c4 10             	add    $0x10,%esp
c010131d:	66 89 45 ec          	mov    %ax,-0x14(%ebp)
c0101321:	8b 45 f0             	mov    -0x10(%ebp),%eax
c0101324:	0f b6 d0             	movzbl %al,%edx
c0101327:	8b 45 f4             	mov    -0xc(%ebp),%eax
c010132a:	0f b6 c0             	movzbl %al,%eax
c010132d:	6a 0a                	push   $0xa
c010132f:	6a 00                	push   $0x0
c0101331:	52                   	push   %edx
c0101332:	50                   	push   %eax
c0101333:	e8 ec 00 00 00       	call   c0101424 <k_dev_pci_read_word>
c0101338:	83 c4 10             	add    $0x10,%esp
c010133b:	66 89 45 ea          	mov    %ax,-0x16(%ebp)
c010133f:	8b 45 f0             	mov    -0x10(%ebp),%eax
c0101342:	0f b6 d0             	movzbl %al,%edx
c0101345:	8b 45 f4             	mov    -0xc(%ebp),%eax
c0101348:	0f b6 c0             	movzbl %al,%eax
c010134b:	6a 0c                	push   $0xc
c010134d:	6a 00                	push   $0x0
c010134f:	52                   	push   %edx
c0101350:	50                   	push   %eax
c0101351:	e8 ce 00 00 00       	call   c0101424 <k_dev_pci_read_word>
c0101356:	83 c4 10             	add    $0x10,%esp
c0101359:	88 45 e9             	mov    %al,-0x17(%ebp)
c010135c:	8b 45 f0             	mov    -0x10(%ebp),%eax
c010135f:	0f b6 d0             	movzbl %al,%edx
c0101362:	8b 45 f4             	mov    -0xc(%ebp),%eax
c0101365:	0f b6 c0             	movzbl %al,%eax
c0101368:	6a 3c                	push   $0x3c
c010136a:	6a 00                	push   $0x0
c010136c:	52                   	push   %edx
c010136d:	50                   	push   %eax
c010136e:	e8 b1 00 00 00       	call   c0101424 <k_dev_pci_read_word>
c0101373:	83 c4 10             	add    $0x10,%esp
c0101376:	66 89 45 e6          	mov    %ax,-0x1a(%ebp)
c010137a:	0f b6 45 e9          	movzbl -0x17(%ebp),%eax
c010137e:	83 e0 7f             	and    $0x7f,%eax
c0101381:	89 c3                	mov    %eax,%ebx
c0101383:	0f b6 45 e9          	movzbl -0x17(%ebp),%eax
c0101387:	25 80 00 00 00       	and    $0x80,%eax
c010138c:	89 c1                	mov    %eax,%ecx
c010138e:	0f b7 55 ec          	movzwl -0x14(%ebp),%edx
c0101392:	0f b7 45 ee          	movzwl -0x12(%ebp),%eax
c0101396:	83 ec 04             	sub    $0x4,%esp
c0101399:	53                   	push   %ebx
c010139a:	51                   	push   %ecx
c010139b:	52                   	push   %edx
c010139c:	50                   	push   %eax
c010139d:	ff 75 f0             	push   -0x10(%ebp)
c01013a0:	ff 75 f4             	push   -0xc(%ebp)
c01013a3:	68 34 70 10 c0       	push   $0xc0107034
c01013a8:	e8 b3 05 00 00       	call   c0101960 <k_info>
c01013ad:	83 c4 20             	add    $0x20,%esp
c01013b0:	0f b7 45 ea          	movzwl -0x16(%ebp),%eax
c01013b4:	0f b6 d0             	movzbl %al,%edx
c01013b7:	0f b7 45 ea          	movzwl -0x16(%ebp),%eax
c01013bb:	66 c1 e8 08          	shr    $0x8,%ax
c01013bf:	0f b7 c0             	movzwl %ax,%eax
c01013c2:	83 ec 04             	sub    $0x4,%esp
c01013c5:	52                   	push   %edx
c01013c6:	50                   	push   %eax
c01013c7:	68 7c 70 10 c0       	push   $0xc010707c
c01013cc:	e8 8f 05 00 00       	call   c0101960 <k_info>
c01013d1:	83 c4 10             	add    $0x10,%esp
c01013d4:	0f b7 45 e6          	movzwl -0x1a(%ebp),%eax
c01013d8:	66 c1 e8 08          	shr    $0x8,%ax
c01013dc:	0f b7 d0             	movzwl %ax,%edx
c01013df:	0f b7 45 e6          	movzwl -0x1a(%ebp),%eax
c01013e3:	0f b6 c0             	movzbl %al,%eax
c01013e6:	83 ec 04             	sub    $0x4,%esp
c01013e9:	52                   	push   %edx
c01013ea:	50                   	push   %eax
c01013eb:	68 9f 70 10 c0       	push   $0xc010709f
c01013f0:	e8 6b 05 00 00       	call   c0101960 <k_info>
c01013f5:	83 c4 10             	add    $0x10,%esp
c01013f8:	83 45 f0 01          	addl   $0x1,-0x10(%ebp)
c01013fc:	81 7d f0 ff 00 00 00 	cmpl   $0xff,-0x10(%ebp)
c0101403:	0f 8e d1 fe ff ff    	jle    c01012da <k_dev_pci_init+0x1f>
c0101409:	83 45 f4 01          	addl   $0x1,-0xc(%ebp)
c010140d:	81 7d f4 ff 00 00 00 	cmpl   $0xff,-0xc(%ebp)
c0101414:	0f 8e b4 fe ff ff    	jle    c01012ce <k_dev_pci_init+0x13>
c010141a:	b8 00 00 00 00       	mov    $0x0,%eax
c010141f:	8b 5d fc             	mov    -0x4(%ebp),%ebx
c0101422:	c9                   	leave
c0101423:	c3                   	ret

c0101424 <k_dev_pci_read_word>:
c0101424:	55                   	push   %ebp
c0101425:	89 e5                	mov    %esp,%ebp
c0101427:	53                   	push   %ebx
c0101428:	83 ec 34             	sub    $0x34,%esp
c010142b:	8b 5d 08             	mov    0x8(%ebp),%ebx
c010142e:	8b 4d 0c             	mov    0xc(%ebp),%ecx
c0101431:	8b 55 10             	mov    0x10(%ebp),%edx
c0101434:	8b 45 14             	mov    0x14(%ebp),%eax
c0101437:	88 5d d4             	mov    %bl,-0x2c(%ebp)
c010143a:	88 4d d0             	mov    %cl,-0x30(%ebp)
c010143d:	88 55 cc             	mov    %dl,-0x34(%ebp)
c0101440:	88 45 c8             	mov    %al,-0x38(%ebp)
c0101443:	0f b6 45 d4          	movzbl -0x2c(%ebp),%eax
c0101447:	89 45 f4             	mov    %eax,-0xc(%ebp)
c010144a:	0f b6 45 d0          	movzbl -0x30(%ebp),%eax
c010144e:	89 45 f0             	mov    %eax,-0x10(%ebp)
c0101451:	0f b6 45 cc          	movzbl -0x34(%ebp),%eax
c0101455:	89 45 ec             	mov    %eax,-0x14(%ebp)
c0101458:	66 c7 45 ea 00 00    	movw   $0x0,-0x16(%ebp)
c010145e:	8b 45 f4             	mov    -0xc(%ebp),%eax
c0101461:	c1 e0 10             	shl    $0x10,%eax
c0101464:	89 c2                	mov    %eax,%edx
c0101466:	8b 45 f0             	mov    -0x10(%ebp),%eax
c0101469:	c1 e0 0b             	shl    $0xb,%eax
c010146c:	09 c2                	or     %eax,%edx
c010146e:	8b 45 ec             	mov    -0x14(%ebp),%eax
c0101471:	c1 e0 08             	shl    $0x8,%eax
c0101474:	09 c2                	or     %eax,%edx
c0101476:	0f b6 45 c8          	movzbl -0x38(%ebp),%eax
c010147a:	25 fc 00 00 00       	and    $0xfc,%eax
c010147f:	09 d0                	or     %edx,%eax
c0101481:	0d 00 00 00 80       	or     $0x80000000,%eax
c0101486:	89 45 e4             	mov    %eax,-0x1c(%ebp)
c0101489:	83 ec 08             	sub    $0x8,%esp
c010148c:	ff 75 e4             	push   -0x1c(%ebp)
c010148f:	68 f8 0c 00 00       	push   $0xcf8
c0101494:	e8 c4 02 00 00       	call   c010175d <outl>
c0101499:	83 c4 10             	add    $0x10,%esp
c010149c:	83 ec 0c             	sub    $0xc,%esp
c010149f:	68 fc 0c 00 00       	push   $0xcfc
c01014a4:	e8 08 03 00 00       	call   c01017b1 <inl>
c01014a9:	83 c4 10             	add    $0x10,%esp
c01014ac:	0f b6 55 c8          	movzbl -0x38(%ebp),%edx
c01014b0:	83 e2 02             	and    $0x2,%edx
c01014b3:	c1 e2 03             	shl    $0x3,%edx
c01014b6:	89 d1                	mov    %edx,%ecx
c01014b8:	d3 e8                	shr    %cl,%eax
c01014ba:	66 89 45 ea          	mov    %ax,-0x16(%ebp)
c01014be:	0f b7 45 ea          	movzwl -0x16(%ebp),%eax
c01014c2:	8b 5d fc             	mov    -0x4(%ebp),%ebx
c01014c5:	c9                   	leave
c01014c6:	c3                   	ret

c01014c7 <__irq0_handler>:
c01014c7:	55                   	push   %ebp
c01014c8:	89 e5                	mov    %esp,%ebp
c01014ca:	83 ec 18             	sub    $0x18,%esp
c01014cd:	a1 00 b0 10 c0       	mov    0xc010b000,%eax
c01014d2:	85 c0                	test   %eax,%eax
c01014d4:	74 0d                	je     c01014e3 <__irq0_handler+0x1c>
c01014d6:	a1 00 b0 10 c0       	mov    0xc010b000,%eax
c01014db:	83 e8 01             	sub    $0x1,%eax
c01014de:	a3 00 b0 10 c0       	mov    %eax,0xc010b000
c01014e3:	c7 45 f4 00 00 00 00 	movl   $0x0,-0xc(%ebp)
c01014ea:	eb 1e                	jmp    c010150a <__irq0_handler+0x43>
c01014ec:	a1 04 b0 10 c0       	mov    0xc010b004,%eax
c01014f1:	8b 55 f4             	mov    -0xc(%ebp),%edx
c01014f4:	c1 e2 02             	shl    $0x2,%edx
c01014f7:	01 d0                	add    %edx,%eax
c01014f9:	8b 00                	mov    (%eax),%eax
c01014fb:	83 ec 0c             	sub    $0xc,%esp
c01014fe:	ff 75 08             	push   0x8(%ebp)
c0101501:	ff d0                	call   *%eax
c0101503:	83 c4 10             	add    $0x10,%esp
c0101506:	83 45 f4 01          	addl   $0x1,-0xc(%ebp)
c010150a:	a1 08 b0 10 c0       	mov    0xc010b008,%eax
c010150f:	39 45 f4             	cmp    %eax,-0xc(%ebp)
c0101512:	72 d8                	jb     c01014ec <__irq0_handler+0x25>
c0101514:	83 ec 0c             	sub    $0xc,%esp
c0101517:	6a 00                	push   $0x0
c0101519:	e8 f4 21 00 00       	call   c0103712 <k_int_pic_eoi>
c010151e:	83 c4 10             	add    $0x10,%esp
c0101521:	8b 45 08             	mov    0x8(%ebp),%eax
c0101524:	c9                   	leave
c0101525:	c3                   	ret

c0101526 <k_dev_timer_add_callback>:
c0101526:	55                   	push   %ebp
c0101527:	89 e5                	mov    %esp,%ebp
c0101529:	83 ec 08             	sub    $0x8,%esp
c010152c:	a1 08 b0 10 c0       	mov    0xc010b008,%eax
c0101531:	83 c0 01             	add    $0x1,%eax
c0101534:	a3 08 b0 10 c0       	mov    %eax,0xc010b008
c0101539:	a1 08 b0 10 c0       	mov    0xc010b008,%eax
c010153e:	83 f8 01             	cmp    $0x1,%eax
c0101541:	75 14                	jne    c0101557 <k_dev_timer_add_callback+0x31>
c0101543:	83 ec 0c             	sub    $0xc,%esp
c0101546:	6a 04                	push   $0x4
c0101548:	e8 1e 17 00 00       	call   c0102c6b <k_mem_heap_alloc>
c010154d:	83 c4 10             	add    $0x10,%esp
c0101550:	a3 04 b0 10 c0       	mov    %eax,0xc010b004
c0101555:	eb 23                	jmp    c010157a <k_dev_timer_add_callback+0x54>
c0101557:	a1 08 b0 10 c0       	mov    0xc010b008,%eax
c010155c:	8d 14 85 00 00 00 00 	lea    0x0(,%eax,4),%edx
c0101563:	a1 04 b0 10 c0       	mov    0xc010b004,%eax
c0101568:	83 ec 08             	sub    $0x8,%esp
c010156b:	52                   	push   %edx
c010156c:	50                   	push   %eax
c010156d:	e8 af 18 00 00       	call   c0102e21 <k_mem_heap_realloc>
c0101572:	83 c4 10             	add    $0x10,%esp
c0101575:	a3 04 b0 10 c0       	mov    %eax,0xc010b004
c010157a:	a1 04 b0 10 c0       	mov    0xc010b004,%eax
c010157f:	8b 15 08 b0 10 c0    	mov    0xc010b008,%edx
c0101585:	81 c2 ff ff ff 3f    	add    $0x3fffffff,%edx
c010158b:	c1 e2 02             	shl    $0x2,%edx
c010158e:	01 c2                	add    %eax,%edx
c0101590:	8b 45 08             	mov    0x8(%ebp),%eax
c0101593:	89 02                	mov    %eax,(%edx)
c0101595:	90                   	nop
c0101596:	c9                   	leave
c0101597:	c3                   	ret

c0101598 <k_dev_timer_init>:
c0101598:	55                   	push   %ebp
c0101599:	89 e5                	mov    %esp,%ebp
c010159b:	83 ec 08             	sub    $0x8,%esp
c010159e:	83 ec 0c             	sub    $0xc,%esp
c01015a1:	6a 00                	push   $0x0
c01015a3:	e8 ef 22 00 00       	call   c0103897 <k_int_pic_unmask_irq>
c01015a8:	83 c4 10             	add    $0x10,%esp
c01015ab:	83 ec 08             	sub    $0x8,%esp
c01015ae:	68 c7 14 10 c0       	push   $0xc01014c7
c01015b3:	6a 00                	push   $0x0
c01015b5:	e8 57 20 00 00       	call   c0103611 <k_int_irq_setup_handler>
c01015ba:	83 c4 10             	add    $0x10,%esp
c01015bd:	c7 05 08 b0 10 c0 00 	movl   $0x0,0xc010b008
c01015c4:	00 00 00 
c01015c7:	b8 00 00 00 00       	mov    $0x0,%eax
c01015cc:	c9                   	leave
c01015cd:	c3                   	ret

c01015ce <k_dev_timer_sleep>:
c01015ce:	55                   	push   %ebp
c01015cf:	89 e5                	mov    %esp,%ebp
c01015d1:	83 ec 08             	sub    $0x8,%esp
c01015d4:	8b 45 08             	mov    0x8(%ebp),%eax
c01015d7:	a3 00 b0 10 c0       	mov    %eax,0xc010b000
c01015dc:	eb 05                	jmp    c01015e3 <k_dev_timer_sleep+0x15>
c01015de:	e8 ea 01 00 00       	call   c01017cd <halt>
c01015e3:	a1 00 b0 10 c0       	mov    0xc010b000,%eax
c01015e8:	85 c0                	test   %eax,%eax
c01015ea:	75 f2                	jne    c01015de <k_dev_timer_sleep+0x10>
c01015ec:	90                   	nop
c01015ed:	90                   	nop
c01015ee:	c9                   	leave
c01015ef:	c3                   	ret

c01015f0 <__k_dev_speaker__start>:
c01015f0:	55                   	push   %ebp
c01015f1:	89 e5                	mov    %esp,%ebp
c01015f3:	83 ec 18             	sub    $0x18,%esp
c01015f6:	b8 dc 34 12 00       	mov    $0x1234dc,%eax
c01015fb:	ba 00 00 00 00       	mov    $0x0,%edx
c0101600:	f7 75 08             	divl   0x8(%ebp)
c0101603:	89 45 f4             	mov    %eax,-0xc(%ebp)
c0101606:	83 ec 08             	sub    $0x8,%esp
c0101609:	68 b6 00 00 00       	push   $0xb6
c010160e:	6a 43                	push   $0x43
c0101610:	e8 08 01 00 00       	call   c010171d <outb>
c0101615:	83 c4 10             	add    $0x10,%esp
c0101618:	8b 45 f4             	mov    -0xc(%ebp),%eax
c010161b:	0f b6 c0             	movzbl %al,%eax
c010161e:	83 ec 08             	sub    $0x8,%esp
c0101621:	50                   	push   %eax
c0101622:	6a 42                	push   $0x42
c0101624:	e8 f4 00 00 00       	call   c010171d <outb>
c0101629:	83 c4 10             	add    $0x10,%esp
c010162c:	8b 45 f4             	mov    -0xc(%ebp),%eax
c010162f:	c1 e8 08             	shr    $0x8,%eax
c0101632:	0f b6 c0             	movzbl %al,%eax
c0101635:	83 ec 08             	sub    $0x8,%esp
c0101638:	50                   	push   %eax
c0101639:	6a 42                	push   $0x42
c010163b:	e8 dd 00 00 00       	call   c010171d <outb>
c0101640:	83 c4 10             	add    $0x10,%esp
c0101643:	83 ec 0c             	sub    $0xc,%esp
c0101646:	6a 61                	push   $0x61
c0101648:	e8 28 01 00 00       	call   c0101775 <inb>
c010164d:	83 c4 10             	add    $0x10,%esp
c0101650:	88 45 f3             	mov    %al,-0xd(%ebp)
c0101653:	0f b6 45 f3          	movzbl -0xd(%ebp),%eax
c0101657:	83 c8 03             	or     $0x3,%eax
c010165a:	38 45 f3             	cmp    %al,-0xd(%ebp)
c010165d:	74 18                	je     c0101677 <__k_dev_speaker__start+0x87>
c010165f:	0f b6 45 f3          	movzbl -0xd(%ebp),%eax
c0101663:	83 c8 03             	or     $0x3,%eax
c0101666:	0f b6 c0             	movzbl %al,%eax
c0101669:	83 ec 08             	sub    $0x8,%esp
c010166c:	50                   	push   %eax
c010166d:	6a 61                	push   $0x61
c010166f:	e8 a9 00 00 00       	call   c010171d <outb>
c0101674:	83 c4 10             	add    $0x10,%esp
c0101677:	90                   	nop
c0101678:	c9                   	leave
c0101679:	c3                   	ret

c010167a <__k_dev_speaker_end>:
c010167a:	55                   	push   %ebp
c010167b:	89 e5                	mov    %esp,%ebp
c010167d:	83 ec 18             	sub    $0x18,%esp
c0101680:	83 ec 0c             	sub    $0xc,%esp
c0101683:	6a 61                	push   $0x61
c0101685:	e8 eb 00 00 00       	call   c0101775 <inb>
c010168a:	83 c4 10             	add    $0x10,%esp
c010168d:	83 e0 fc             	and    $0xfffffffc,%eax
c0101690:	88 45 f7             	mov    %al,-0x9(%ebp)
c0101693:	0f b6 45 f7          	movzbl -0x9(%ebp),%eax
c0101697:	83 ec 08             	sub    $0x8,%esp
c010169a:	50                   	push   %eax
c010169b:	6a 61                	push   $0x61
c010169d:	e8 7b 00 00 00       	call   c010171d <outb>
c01016a2:	83 c4 10             	add    $0x10,%esp
c01016a5:	90                   	nop
c01016a6:	c9                   	leave
c01016a7:	c3                   	ret

c01016a8 <k_dev_speaker_beep>:
c01016a8:	55                   	push   %ebp
c01016a9:	89 e5                	mov    %esp,%ebp
c01016ab:	83 ec 08             	sub    $0x8,%esp
c01016ae:	83 ec 0c             	sub    $0xc,%esp
c01016b1:	ff 75 08             	push   0x8(%ebp)
c01016b4:	e8 37 ff ff ff       	call   c01015f0 <__k_dev_speaker__start>
c01016b9:	83 c4 10             	add    $0x10,%esp
c01016bc:	83 ec 0c             	sub    $0xc,%esp
c01016bf:	ff 75 0c             	push   0xc(%ebp)
c01016c2:	e8 07 ff ff ff       	call   c01015ce <k_dev_timer_sleep>
c01016c7:	83 c4 10             	add    $0x10,%esp
c01016ca:	e8 ab ff ff ff       	call   c010167a <__k_dev_speaker_end>
c01016cf:	90                   	nop
c01016d0:	c9                   	leave
c01016d1:	c3                   	ret

c01016d2 <_putchar>:
c01016d2:	55                   	push   %ebp
c01016d3:	89 e5                	mov    %esp,%ebp
c01016d5:	83 ec 18             	sub    $0x18,%esp
c01016d8:	8b 45 08             	mov    0x8(%ebp),%eax
c01016db:	88 45 f4             	mov    %al,-0xc(%ebp)
c01016de:	0f be 45 f4          	movsbl -0xc(%ebp),%eax
c01016e2:	83 ec 0c             	sub    $0xc,%esp
c01016e5:	50                   	push   %eax
c01016e6:	e8 39 fb ff ff       	call   c0101224 <k_dev_serial_write>
c01016eb:	83 c4 10             	add    $0x10,%esp
c01016ee:	90                   	nop
c01016ef:	c9                   	leave
c01016f0:	c3                   	ret

c01016f1 <_malloc>:
c01016f1:	55                   	push   %ebp
c01016f2:	89 e5                	mov    %esp,%ebp
c01016f4:	83 ec 08             	sub    $0x8,%esp
c01016f7:	83 ec 0c             	sub    $0xc,%esp
c01016fa:	ff 75 08             	push   0x8(%ebp)
c01016fd:	e8 69 15 00 00       	call   c0102c6b <k_mem_heap_alloc>
c0101702:	83 c4 10             	add    $0x10,%esp
c0101705:	c9                   	leave
c0101706:	c3                   	ret

c0101707 <_free>:
c0101707:	55                   	push   %ebp
c0101708:	89 e5                	mov    %esp,%ebp
c010170a:	83 ec 08             	sub    $0x8,%esp
c010170d:	83 ec 0c             	sub    $0xc,%esp
c0101710:	ff 75 08             	push   0x8(%ebp)
c0101713:	e8 c3 16 00 00       	call   c0102ddb <k_mem_heap_free>
c0101718:	83 c4 10             	add    $0x10,%esp
c010171b:	c9                   	leave
c010171c:	c3                   	ret

c010171d <outb>:
c010171d:	55                   	push   %ebp
c010171e:	89 e5                	mov    %esp,%ebp
c0101720:	83 ec 08             	sub    $0x8,%esp
c0101723:	8b 55 08             	mov    0x8(%ebp),%edx
c0101726:	8b 45 0c             	mov    0xc(%ebp),%eax
c0101729:	66 89 55 fc          	mov    %dx,-0x4(%ebp)
c010172d:	88 45 f8             	mov    %al,-0x8(%ebp)
c0101730:	0f b7 55 fc          	movzwl -0x4(%ebp),%edx
c0101734:	0f b6 45 f8          	movzbl -0x8(%ebp),%eax
c0101738:	ee                   	out    %al,(%dx)
c0101739:	90                   	nop
c010173a:	c9                   	leave
c010173b:	c3                   	ret

c010173c <outw>:
c010173c:	55                   	push   %ebp
c010173d:	89 e5                	mov    %esp,%ebp
c010173f:	83 ec 08             	sub    $0x8,%esp
c0101742:	8b 55 08             	mov    0x8(%ebp),%edx
c0101745:	8b 45 0c             	mov    0xc(%ebp),%eax
c0101748:	66 89 55 fc          	mov    %dx,-0x4(%ebp)
c010174c:	66 89 45 f8          	mov    %ax,-0x8(%ebp)
c0101750:	0f b7 55 fc          	movzwl -0x4(%ebp),%edx
c0101754:	0f b7 45 f8          	movzwl -0x8(%ebp),%eax
c0101758:	66 ef                	out    %ax,(%dx)
c010175a:	90                   	nop
c010175b:	c9                   	leave
c010175c:	c3                   	ret

c010175d <outl>:
c010175d:	55                   	push   %ebp
c010175e:	89 e5                	mov    %esp,%ebp
c0101760:	83 ec 04             	sub    $0x4,%esp
c0101763:	8b 45 08             	mov    0x8(%ebp),%eax
c0101766:	66 89 45 fc          	mov    %ax,-0x4(%ebp)
c010176a:	0f b7 55 fc          	movzwl -0x4(%ebp),%edx
c010176e:	8b 45 0c             	mov    0xc(%ebp),%eax
c0101771:	ef                   	out    %eax,(%dx)
c0101772:	90                   	nop
c0101773:	c9                   	leave
c0101774:	c3                   	ret

c0101775 <inb>:
c0101775:	55                   	push   %ebp
c0101776:	89 e5                	mov    %esp,%ebp
c0101778:	83 ec 14             	sub    $0x14,%esp
c010177b:	8b 45 08             	mov    0x8(%ebp),%eax
c010177e:	66 89 45 ec          	mov    %ax,-0x14(%ebp)
c0101782:	0f b7 45 ec          	movzwl -0x14(%ebp),%eax
c0101786:	89 c2                	mov    %eax,%edx
c0101788:	ec                   	in     (%dx),%al
c0101789:	88 45 ff             	mov    %al,-0x1(%ebp)
c010178c:	0f b6 45 ff          	movzbl -0x1(%ebp),%eax
c0101790:	c9                   	leave
c0101791:	c3                   	ret

c0101792 <inw>:
c0101792:	55                   	push   %ebp
c0101793:	89 e5                	mov    %esp,%ebp
c0101795:	83 ec 14             	sub    $0x14,%esp
c0101798:	8b 45 08             	mov    0x8(%ebp),%eax
c010179b:	66 89 45 ec          	mov    %ax,-0x14(%ebp)
c010179f:	0f b7 45 ec          	movzwl -0x14(%ebp),%eax
c01017a3:	89 c2                	mov    %eax,%edx
c01017a5:	66 ed                	in     (%dx),%ax
c01017a7:	66 89 45 fe          	mov    %ax,-0x2(%ebp)
c01017ab:	0f b7 45 fe          	movzwl -0x2(%ebp),%eax
c01017af:	c9                   	leave
c01017b0:	c3                   	ret

c01017b1 <inl>:
c01017b1:	55                   	push   %ebp
c01017b2:	89 e5                	mov    %esp,%ebp
c01017b4:	83 ec 14             	sub    $0x14,%esp
c01017b7:	8b 45 08             	mov    0x8(%ebp),%eax
c01017ba:	66 89 45 ec          	mov    %ax,-0x14(%ebp)
c01017be:	0f b7 45 ec          	movzwl -0x14(%ebp),%eax
c01017c2:	89 c2                	mov    %eax,%edx
c01017c4:	ed                   	in     (%dx),%eax
c01017c5:	89 45 fc             	mov    %eax,-0x4(%ebp)
c01017c8:	8b 45 fc             	mov    -0x4(%ebp),%eax
c01017cb:	c9                   	leave
c01017cc:	c3                   	ret

c01017cd <halt>:
c01017cd:	55                   	push   %ebp
c01017ce:	89 e5                	mov    %esp,%ebp
c01017d0:	f4                   	hlt
c01017d1:	90                   	nop
c01017d2:	5d                   	pop    %ebp
c01017d3:	c3                   	ret

c01017d4 <cli>:
c01017d4:	55                   	push   %ebp
c01017d5:	89 e5                	mov    %esp,%ebp
c01017d7:	fa                   	cli
c01017d8:	90                   	nop
c01017d9:	5d                   	pop    %ebp
c01017da:	c3                   	ret

c01017db <sti>:
c01017db:	55                   	push   %ebp
c01017dc:	89 e5                	mov    %esp,%ebp
c01017de:	fb                   	sti
c01017df:	90                   	nop
c01017e0:	5d                   	pop    %ebp
c01017e1:	c3                   	ret

c01017e2 <k_panic>:
c01017e2:	55                   	push   %ebp
c01017e3:	89 e5                	mov    %esp,%ebp
c01017e5:	53                   	push   %ebx
c01017e6:	83 ec 14             	sub    $0x14,%esp
c01017e9:	83 ec 0c             	sub    $0xc,%esp
c01017ec:	68 b8 70 10 c0       	push   $0xc01070b8
c01017f1:	e8 22 50 00 00       	call   c0106818 <printf_>
c01017f6:	83 c4 10             	add    $0x10,%esp
c01017f9:	83 ec 08             	sub    $0x8,%esp
c01017fc:	ff 75 08             	push   0x8(%ebp)
c01017ff:	68 e3 70 10 c0       	push   $0xc01070e3
c0101804:	e8 0f 50 00 00       	call   c0106818 <printf_>
c0101809:	83 c4 10             	add    $0x10,%esp
c010180c:	83 ec 0c             	sub    $0xc,%esp
c010180f:	68 f0 70 10 c0       	push   $0xc01070f0
c0101814:	e8 ff 4f 00 00       	call   c0106818 <printf_>
c0101819:	83 c4 10             	add    $0x10,%esp
c010181c:	83 7d 0c 00          	cmpl   $0x0,0xc(%ebp)
c0101820:	0f 84 cf 00 00 00    	je     c01018f5 <k_panic+0x113>
c0101826:	8b 45 0c             	mov    0xc(%ebp),%eax
c0101829:	8b 58 14             	mov    0x14(%eax),%ebx
c010182c:	8b 45 0c             	mov    0xc(%ebp),%eax
c010182f:	8b 48 18             	mov    0x18(%eax),%ecx
c0101832:	8b 45 0c             	mov    0xc(%ebp),%eax
c0101835:	8b 50 10             	mov    0x10(%eax),%edx
c0101838:	8b 45 0c             	mov    0xc(%ebp),%eax
c010183b:	8b 40 1c             	mov    0x1c(%eax),%eax
c010183e:	83 ec 0c             	sub    $0xc,%esp
c0101841:	53                   	push   %ebx
c0101842:	51                   	push   %ecx
c0101843:	52                   	push   %edx
c0101844:	50                   	push   %eax
c0101845:	68 f8 70 10 c0       	push   $0xc01070f8
c010184a:	e8 c9 4f 00 00       	call   c0106818 <printf_>
c010184f:	83 c4 20             	add    $0x20,%esp
c0101852:	8b 45 0c             	mov    0xc(%ebp),%eax
c0101855:	8b 58 34             	mov    0x34(%eax),%ebx
c0101858:	8b 45 0c             	mov    0xc(%ebp),%eax
c010185b:	8b 48 08             	mov    0x8(%eax),%ecx
c010185e:	8b 45 0c             	mov    0xc(%ebp),%eax
c0101861:	8b 50 04             	mov    0x4(%eax),%edx
c0101864:	8b 45 0c             	mov    0xc(%ebp),%eax
c0101867:	8b 00                	mov    (%eax),%eax
c0101869:	83 ec 0c             	sub    $0xc,%esp
c010186c:	53                   	push   %ebx
c010186d:	51                   	push   %ecx
c010186e:	52                   	push   %edx
c010186f:	50                   	push   %eax
c0101870:	68 2c 71 10 c0       	push   $0xc010712c
c0101875:	e8 9e 4f 00 00       	call   c0106818 <printf_>
c010187a:	83 c4 20             	add    $0x20,%esp
c010187d:	8b 45 0c             	mov    0xc(%ebp),%eax
c0101880:	8b 40 28             	mov    0x28(%eax),%eax
c0101883:	83 ec 0c             	sub    $0xc,%esp
c0101886:	50                   	push   %eax
c0101887:	e8 ab 37 00 00       	call   c0105037 <k_mod_symtable_get_nearest_symbol>
c010188c:	83 c4 10             	add    $0x10,%esp
c010188f:	89 45 f4             	mov    %eax,-0xc(%ebp)
c0101892:	83 7d f4 00          	cmpl   $0x0,-0xc(%ebp)
c0101896:	74 2d                	je     c01018c5 <k_panic+0xe3>
c0101898:	8b 45 0c             	mov    0xc(%ebp),%eax
c010189b:	8b 50 28             	mov    0x28(%eax),%edx
c010189e:	8b 45 f4             	mov    -0xc(%ebp),%eax
c01018a1:	8b 00                	mov    (%eax),%eax
c01018a3:	89 d1                	mov    %edx,%ecx
c01018a5:	29 c1                	sub    %eax,%ecx
c01018a7:	8b 45 f4             	mov    -0xc(%ebp),%eax
c01018aa:	8d 50 04             	lea    0x4(%eax),%edx
c01018ad:	8b 45 0c             	mov    0xc(%ebp),%eax
c01018b0:	8b 40 28             	mov    0x28(%eax),%eax
c01018b3:	51                   	push   %ecx
c01018b4:	52                   	push   %edx
c01018b5:	50                   	push   %eax
c01018b6:	68 5f 71 10 c0       	push   $0xc010715f
c01018bb:	e8 58 4f 00 00       	call   c0106818 <printf_>
c01018c0:	83 c4 10             	add    $0x10,%esp
c01018c3:	eb 17                	jmp    c01018dc <k_panic+0xfa>
c01018c5:	8b 45 0c             	mov    0xc(%ebp),%eax
c01018c8:	8b 40 28             	mov    0x28(%eax),%eax
c01018cb:	83 ec 08             	sub    $0x8,%esp
c01018ce:	50                   	push   %eax
c01018cf:	68 7a 71 10 c0       	push   $0xc010717a
c01018d4:	e8 3f 4f 00 00       	call   c0106818 <printf_>
c01018d9:	83 c4 10             	add    $0x10,%esp
c01018dc:	8b 45 0c             	mov    0xc(%ebp),%eax
c01018df:	8b 40 30             	mov    0x30(%eax),%eax
c01018e2:	83 ec 08             	sub    $0x8,%esp
c01018e5:	50                   	push   %eax
c01018e6:	68 91 71 10 c0       	push   $0xc0107191
c01018eb:	e8 28 4f 00 00       	call   c0106818 <printf_>
c01018f0:	83 c4 10             	add    $0x10,%esp
c01018f3:	eb 10                	jmp    c0101905 <k_panic+0x123>
c01018f5:	83 ec 0c             	sub    $0xc,%esp
c01018f8:	68 9f 71 10 c0       	push   $0xc010719f
c01018fd:	e8 16 4f 00 00       	call   c0106818 <printf_>
c0101902:	83 c4 10             	add    $0x10,%esp
c0101905:	83 ec 0c             	sub    $0xc,%esp
c0101908:	68 b0 71 10 c0       	push   $0xc01071b0
c010190d:	e8 06 4f 00 00       	call   c0106818 <printf_>
c0101912:	83 c4 10             	add    $0x10,%esp
c0101915:	e8 ba fe ff ff       	call   c01017d4 <cli>
c010191a:	e8 ae fe ff ff       	call   c01017cd <halt>
c010191f:	90                   	nop
c0101920:	8b 5d fc             	mov    -0x4(%ebp),%ebx
c0101923:	c9                   	leave
c0101924:	c3                   	ret

c0101925 <vprintf_prefixed>:
c0101925:	55                   	push   %ebp
c0101926:	89 e5                	mov    %esp,%ebp
c0101928:	81 ec 08 10 00 00    	sub    $0x1008,%esp
c010192e:	ff 75 0c             	push   0xc(%ebp)
c0101931:	ff 75 08             	push   0x8(%ebp)
c0101934:	68 d9 71 10 c0       	push   $0xc01071d9
c0101939:	8d 85 f8 ef ff ff    	lea    -0x1008(%ebp),%eax
c010193f:	50                   	push   %eax
c0101940:	e8 04 4f 00 00       	call   c0106849 <sprintf_>
c0101945:	83 c4 10             	add    $0x10,%esp
c0101948:	83 ec 08             	sub    $0x8,%esp
c010194b:	ff 75 10             	push   0x10(%ebp)
c010194e:	8d 85 f8 ef ff ff    	lea    -0x1008(%ebp),%eax
c0101954:	50                   	push   %eax
c0101955:	e8 50 4f 00 00       	call   c01068aa <vprintf_>
c010195a:	83 c4 10             	add    $0x10,%esp
c010195d:	90                   	nop
c010195e:	c9                   	leave
c010195f:	c3                   	ret

c0101960 <k_info>:
c0101960:	55                   	push   %ebp
c0101961:	89 e5                	mov    %esp,%ebp
c0101963:	83 ec 18             	sub    $0x18,%esp
c0101966:	8d 45 0c             	lea    0xc(%ebp),%eax
c0101969:	89 45 f4             	mov    %eax,-0xc(%ebp)
c010196c:	8b 45 f4             	mov    -0xc(%ebp),%eax
c010196f:	83 ec 04             	sub    $0x4,%esp
c0101972:	50                   	push   %eax
c0101973:	ff 75 08             	push   0x8(%ebp)
c0101976:	68 e0 71 10 c0       	push   $0xc01071e0
c010197b:	e8 a5 ff ff ff       	call   c0101925 <vprintf_prefixed>
c0101980:	83 c4 10             	add    $0x10,%esp
c0101983:	90                   	nop
c0101984:	c9                   	leave
c0101985:	c3                   	ret

c0101986 <k_warn>:
c0101986:	55                   	push   %ebp
c0101987:	89 e5                	mov    %esp,%ebp
c0101989:	83 ec 18             	sub    $0x18,%esp
c010198c:	8d 45 0c             	lea    0xc(%ebp),%eax
c010198f:	89 45 f4             	mov    %eax,-0xc(%ebp)
c0101992:	8b 45 f4             	mov    -0xc(%ebp),%eax
c0101995:	83 ec 04             	sub    $0x4,%esp
c0101998:	50                   	push   %eax
c0101999:	ff 75 08             	push   0x8(%ebp)
c010199c:	68 e5 71 10 c0       	push   $0xc01071e5
c01019a1:	e8 7f ff ff ff       	call   c0101925 <vprintf_prefixed>
c01019a6:	83 c4 10             	add    $0x10,%esp
c01019a9:	90                   	nop
c01019aa:	c9                   	leave
c01019ab:	c3                   	ret

c01019ac <k_err>:
c01019ac:	55                   	push   %ebp
c01019ad:	89 e5                	mov    %esp,%ebp
c01019af:	83 ec 18             	sub    $0x18,%esp
c01019b2:	8d 45 0c             	lea    0xc(%ebp),%eax
c01019b5:	89 45 f4             	mov    %eax,-0xc(%ebp)
c01019b8:	8b 45 f4             	mov    -0xc(%ebp),%eax
c01019bb:	83 ec 04             	sub    $0x4,%esp
c01019be:	50                   	push   %eax
c01019bf:	ff 75 08             	push   0x8(%ebp)
c01019c2:	68 ea 71 10 c0       	push   $0xc01071ea
c01019c7:	e8 59 ff ff ff       	call   c0101925 <vprintf_prefixed>
c01019cc:	83 c4 10             	add    $0x10,%esp
c01019cf:	90                   	nop
c01019d0:	c9                   	leave
c01019d1:	c3                   	ret

c01019d2 <k_debug>:
c01019d2:	55                   	push   %ebp
c01019d3:	89 e5                	mov    %esp,%ebp
c01019d5:	83 ec 18             	sub    $0x18,%esp
c01019d8:	8d 45 0c             	lea    0xc(%ebp),%eax
c01019db:	89 45 f4             	mov    %eax,-0xc(%ebp)
c01019de:	8b 45 f4             	mov    -0xc(%ebp),%eax
c01019e1:	83 ec 04             	sub    $0x4,%esp
c01019e4:	50                   	push   %eax
c01019e5:	ff 75 08             	push   0x8(%ebp)
c01019e8:	68 ef 71 10 c0       	push   $0xc01071ef
c01019ed:	e8 33 ff ff ff       	call   c0101925 <vprintf_prefixed>
c01019f2:	83 c4 10             	add    $0x10,%esp
c01019f5:	90                   	nop
c01019f6:	c9                   	leave
c01019f7:	c3                   	ret

c01019f8 <k_util_path_canonize>:
c01019f8:	55                   	push   %ebp
c01019f9:	89 e5                	mov    %esp,%ebp
c01019fb:	83 ec 18             	sub    $0x18,%esp
c01019fe:	83 ec 0c             	sub    $0xc,%esp
c0101a01:	ff 75 08             	push   0x8(%ebp)
c0101a04:	e8 e3 51 00 00       	call   c0106bec <strdup>
c0101a09:	83 c4 10             	add    $0x10,%esp
c0101a0c:	89 45 f4             	mov    %eax,-0xc(%ebp)
c0101a0f:	83 ec 0c             	sub    $0xc,%esp
c0101a12:	ff 75 f4             	push   -0xc(%ebp)
c0101a15:	e8 96 50 00 00       	call   c0106ab0 <strlen>
c0101a1a:	83 c4 10             	add    $0x10,%esp
c0101a1d:	89 45 f0             	mov    %eax,-0x10(%ebp)
c0101a20:	8b 45 f4             	mov    -0xc(%ebp),%eax
c0101a23:	0f b6 00             	movzbl (%eax),%eax
c0101a26:	3c 2f                	cmp    $0x2f,%al
c0101a28:	75 08                	jne    c0101a32 <k_util_path_canonize+0x3a>
c0101a2a:	83 45 f4 01          	addl   $0x1,-0xc(%ebp)
c0101a2e:	83 6d f0 01          	subl   $0x1,-0x10(%ebp)
c0101a32:	8b 45 f0             	mov    -0x10(%ebp),%eax
c0101a35:	8d 50 ff             	lea    -0x1(%eax),%edx
c0101a38:	8b 45 f4             	mov    -0xc(%ebp),%eax
c0101a3b:	01 d0                	add    %edx,%eax
c0101a3d:	0f b6 00             	movzbl (%eax),%eax
c0101a40:	3c 2f                	cmp    $0x2f,%al
c0101a42:	75 0e                	jne    c0101a52 <k_util_path_canonize+0x5a>
c0101a44:	8b 45 f0             	mov    -0x10(%ebp),%eax
c0101a47:	8d 50 ff             	lea    -0x1(%eax),%edx
c0101a4a:	8b 45 f4             	mov    -0xc(%ebp),%eax
c0101a4d:	01 d0                	add    %edx,%eax
c0101a4f:	c6 00 00             	movb   $0x0,(%eax)
c0101a52:	8b 45 f4             	mov    -0xc(%ebp),%eax
c0101a55:	c9                   	leave
c0101a56:	c3                   	ret

c0101a57 <k_util_path_length>:
c0101a57:	55                   	push   %ebp
c0101a58:	89 e5                	mov    %esp,%ebp
c0101a5a:	83 ec 18             	sub    $0x18,%esp
c0101a5d:	83 ec 0c             	sub    $0xc,%esp
c0101a60:	ff 75 08             	push   0x8(%ebp)
c0101a63:	e8 90 ff ff ff       	call   c01019f8 <k_util_path_canonize>
c0101a68:	83 c4 10             	add    $0x10,%esp
c0101a6b:	89 45 ec             	mov    %eax,-0x14(%ebp)
c0101a6e:	c7 45 f4 00 00 00 00 	movl   $0x0,-0xc(%ebp)
c0101a75:	c7 45 f0 00 00 00 00 	movl   $0x0,-0x10(%ebp)
c0101a7c:	eb 17                	jmp    c0101a95 <k_util_path_length+0x3e>
c0101a7e:	8b 55 ec             	mov    -0x14(%ebp),%edx
c0101a81:	8b 45 f0             	mov    -0x10(%ebp),%eax
c0101a84:	01 d0                	add    %edx,%eax
c0101a86:	0f b6 00             	movzbl (%eax),%eax
c0101a89:	3c 2f                	cmp    $0x2f,%al
c0101a8b:	75 04                	jne    c0101a91 <k_util_path_length+0x3a>
c0101a8d:	83 45 f4 01          	addl   $0x1,-0xc(%ebp)
c0101a91:	83 45 f0 01          	addl   $0x1,-0x10(%ebp)
c0101a95:	83 ec 0c             	sub    $0xc,%esp
c0101a98:	ff 75 ec             	push   -0x14(%ebp)
c0101a9b:	e8 10 50 00 00       	call   c0106ab0 <strlen>
c0101aa0:	83 c4 10             	add    $0x10,%esp
c0101aa3:	39 45 f0             	cmp    %eax,-0x10(%ebp)
c0101aa6:	72 d6                	jb     c0101a7e <k_util_path_length+0x27>
c0101aa8:	83 ec 0c             	sub    $0xc,%esp
c0101aab:	ff 75 ec             	push   -0x14(%ebp)
c0101aae:	e8 28 13 00 00       	call   c0102ddb <k_mem_heap_free>
c0101ab3:	83 c4 10             	add    $0x10,%esp
c0101ab6:	8b 45 f4             	mov    -0xc(%ebp),%eax
c0101ab9:	83 c0 01             	add    $0x1,%eax
c0101abc:	c9                   	leave
c0101abd:	c3                   	ret

c0101abe <k_util_path_segment>:
c0101abe:	55                   	push   %ebp
c0101abf:	89 e5                	mov    %esp,%ebp
c0101ac1:	83 ec 28             	sub    $0x28,%esp
c0101ac4:	83 ec 0c             	sub    $0xc,%esp
c0101ac7:	ff 75 08             	push   0x8(%ebp)
c0101aca:	e8 29 ff ff ff       	call   c01019f8 <k_util_path_canonize>
c0101acf:	83 c4 10             	add    $0x10,%esp
c0101ad2:	89 45 ec             	mov    %eax,-0x14(%ebp)
c0101ad5:	c7 45 f4 00 00 00 00 	movl   $0x0,-0xc(%ebp)
c0101adc:	83 ec 0c             	sub    $0xc,%esp
c0101adf:	ff 75 ec             	push   -0x14(%ebp)
c0101ae2:	e8 c9 4f 00 00       	call   c0106ab0 <strlen>
c0101ae7:	83 c4 10             	add    $0x10,%esp
c0101aea:	89 45 e8             	mov    %eax,-0x18(%ebp)
c0101aed:	c7 45 f0 00 00 00 00 	movl   $0x0,-0x10(%ebp)
c0101af4:	eb 2e                	jmp    c0101b24 <k_util_path_segment+0x66>
c0101af6:	8b 55 ec             	mov    -0x14(%ebp),%edx
c0101af9:	8b 45 f4             	mov    -0xc(%ebp),%eax
c0101afc:	01 d0                	add    %edx,%eax
c0101afe:	83 ec 08             	sub    $0x8,%esp
c0101b01:	68 f4 71 10 c0       	push   $0xc01071f4
c0101b06:	50                   	push   %eax
c0101b07:	e8 48 51 00 00       	call   c0106c54 <strcspn>
c0101b0c:	83 c4 10             	add    $0x10,%esp
c0101b0f:	89 45 e4             	mov    %eax,-0x1c(%ebp)
c0101b12:	83 45 f0 01          	addl   $0x1,-0x10(%ebp)
c0101b16:	8b 55 e4             	mov    -0x1c(%ebp),%edx
c0101b19:	8b 45 f4             	mov    -0xc(%ebp),%eax
c0101b1c:	01 d0                	add    %edx,%eax
c0101b1e:	83 c0 01             	add    $0x1,%eax
c0101b21:	89 45 f4             	mov    %eax,-0xc(%ebp)
c0101b24:	8b 45 f0             	mov    -0x10(%ebp),%eax
c0101b27:	3b 45 0c             	cmp    0xc(%ebp),%eax
c0101b2a:	73 08                	jae    c0101b34 <k_util_path_segment+0x76>
c0101b2c:	8b 45 f4             	mov    -0xc(%ebp),%eax
c0101b2f:	3b 45 e8             	cmp    -0x18(%ebp),%eax
c0101b32:	72 c2                	jb     c0101af6 <k_util_path_segment+0x38>
c0101b34:	8b 45 f0             	mov    -0x10(%ebp),%eax
c0101b37:	3b 45 0c             	cmp    0xc(%ebp),%eax
c0101b3a:	74 15                	je     c0101b51 <k_util_path_segment+0x93>
c0101b3c:	83 ec 0c             	sub    $0xc,%esp
c0101b3f:	ff 75 ec             	push   -0x14(%ebp)
c0101b42:	e8 94 12 00 00       	call   c0102ddb <k_mem_heap_free>
c0101b47:	83 c4 10             	add    $0x10,%esp
c0101b4a:	b8 00 00 00 00       	mov    $0x0,%eax
c0101b4f:	eb 51                	jmp    c0101ba2 <k_util_path_segment+0xe4>
c0101b51:	8b 55 ec             	mov    -0x14(%ebp),%edx
c0101b54:	8b 45 f4             	mov    -0xc(%ebp),%eax
c0101b57:	01 d0                	add    %edx,%eax
c0101b59:	83 ec 08             	sub    $0x8,%esp
c0101b5c:	6a 2f                	push   $0x2f
c0101b5e:	50                   	push   %eax
c0101b5f:	e8 c4 50 00 00       	call   c0106c28 <strchrnul>
c0101b64:	83 c4 10             	add    $0x10,%esp
c0101b67:	c6 00 00             	movb   $0x0,(%eax)
c0101b6a:	8b 55 ec             	mov    -0x14(%ebp),%edx
c0101b6d:	8b 45 f4             	mov    -0xc(%ebp),%eax
c0101b70:	01 d0                	add    %edx,%eax
c0101b72:	83 ec 0c             	sub    $0xc,%esp
c0101b75:	50                   	push   %eax
c0101b76:	e8 35 4f 00 00       	call   c0106ab0 <strlen>
c0101b7b:	83 c4 10             	add    $0x10,%esp
c0101b7e:	89 45 e0             	mov    %eax,-0x20(%ebp)
c0101b81:	8b 45 e0             	mov    -0x20(%ebp),%eax
c0101b84:	8d 50 01             	lea    0x1(%eax),%edx
c0101b87:	8b 4d ec             	mov    -0x14(%ebp),%ecx
c0101b8a:	8b 45 f4             	mov    -0xc(%ebp),%eax
c0101b8d:	01 c8                	add    %ecx,%eax
c0101b8f:	83 ec 04             	sub    $0x4,%esp
c0101b92:	52                   	push   %edx
c0101b93:	50                   	push   %eax
c0101b94:	ff 75 ec             	push   -0x14(%ebp)
c0101b97:	e8 04 4e 00 00       	call   c01069a0 <memmove>
c0101b9c:	83 c4 10             	add    $0x10,%esp
c0101b9f:	8b 45 ec             	mov    -0x14(%ebp),%eax
c0101ba2:	c9                   	leave
c0101ba3:	c3                   	ret

c0101ba4 <k_util_path_filename>:
c0101ba4:	55                   	push   %ebp
c0101ba5:	89 e5                	mov    %esp,%ebp
c0101ba7:	83 ec 18             	sub    $0x18,%esp
c0101baa:	83 ec 0c             	sub    $0xc,%esp
c0101bad:	ff 75 08             	push   0x8(%ebp)
c0101bb0:	e8 a2 fe ff ff       	call   c0101a57 <k_util_path_length>
c0101bb5:	83 c4 10             	add    $0x10,%esp
c0101bb8:	89 45 f4             	mov    %eax,-0xc(%ebp)
c0101bbb:	8b 45 f4             	mov    -0xc(%ebp),%eax
c0101bbe:	83 e8 01             	sub    $0x1,%eax
c0101bc1:	83 ec 08             	sub    $0x8,%esp
c0101bc4:	50                   	push   %eax
c0101bc5:	ff 75 08             	push   0x8(%ebp)
c0101bc8:	e8 f1 fe ff ff       	call   c0101abe <k_util_path_segment>
c0101bcd:	83 c4 10             	add    $0x10,%esp
c0101bd0:	c9                   	leave
c0101bd1:	c3                   	ret

c0101bd2 <k_util_path_folder>:
c0101bd2:	55                   	push   %ebp
c0101bd3:	89 e5                	mov    %esp,%ebp
c0101bd5:	83 ec 18             	sub    $0x18,%esp
c0101bd8:	83 ec 0c             	sub    $0xc,%esp
c0101bdb:	ff 75 08             	push   0x8(%ebp)
c0101bde:	e8 c1 ff ff ff       	call   c0101ba4 <k_util_path_filename>
c0101be3:	83 c4 10             	add    $0x10,%esp
c0101be6:	89 45 f4             	mov    %eax,-0xc(%ebp)
c0101be9:	83 ec 0c             	sub    $0xc,%esp
c0101bec:	ff 75 08             	push   0x8(%ebp)
c0101bef:	e8 04 fe ff ff       	call   c01019f8 <k_util_path_canonize>
c0101bf4:	83 c4 10             	add    $0x10,%esp
c0101bf7:	89 45 f0             	mov    %eax,-0x10(%ebp)
c0101bfa:	83 ec 0c             	sub    $0xc,%esp
c0101bfd:	ff 75 f4             	push   -0xc(%ebp)
c0101c00:	e8 d6 11 00 00       	call   c0102ddb <k_mem_heap_free>
c0101c05:	83 c4 10             	add    $0x10,%esp
c0101c08:	8b 45 f0             	mov    -0x10(%ebp),%eax
c0101c0b:	c9                   	leave
c0101c0c:	c3                   	ret

c0101c0d <k_util_path_join>:
c0101c0d:	55                   	push   %ebp
c0101c0e:	89 e5                	mov    %esp,%ebp
c0101c10:	53                   	push   %ebx
c0101c11:	83 ec 14             	sub    $0x14,%esp
c0101c14:	83 ec 0c             	sub    $0xc,%esp
c0101c17:	ff 75 08             	push   0x8(%ebp)
c0101c1a:	e8 d9 fd ff ff       	call   c01019f8 <k_util_path_canonize>
c0101c1f:	83 c4 10             	add    $0x10,%esp
c0101c22:	89 45 f4             	mov    %eax,-0xc(%ebp)
c0101c25:	83 ec 0c             	sub    $0xc,%esp
c0101c28:	ff 75 0c             	push   0xc(%ebp)
c0101c2b:	e8 c8 fd ff ff       	call   c01019f8 <k_util_path_canonize>
c0101c30:	83 c4 10             	add    $0x10,%esp
c0101c33:	89 45 f0             	mov    %eax,-0x10(%ebp)
c0101c36:	83 ec 0c             	sub    $0xc,%esp
c0101c39:	ff 75 08             	push   0x8(%ebp)
c0101c3c:	e8 6f 4e 00 00       	call   c0106ab0 <strlen>
c0101c41:	83 c4 10             	add    $0x10,%esp
c0101c44:	89 c3                	mov    %eax,%ebx
c0101c46:	83 ec 0c             	sub    $0xc,%esp
c0101c49:	ff 75 0c             	push   0xc(%ebp)
c0101c4c:	e8 5f 4e 00 00       	call   c0106ab0 <strlen>
c0101c51:	83 c4 10             	add    $0x10,%esp
c0101c54:	01 d8                	add    %ebx,%eax
c0101c56:	83 c0 02             	add    $0x2,%eax
c0101c59:	83 ec 0c             	sub    $0xc,%esp
c0101c5c:	50                   	push   %eax
c0101c5d:	e8 09 10 00 00       	call   c0102c6b <k_mem_heap_alloc>
c0101c62:	83 c4 10             	add    $0x10,%esp
c0101c65:	89 45 ec             	mov    %eax,-0x14(%ebp)
c0101c68:	ff 75 f0             	push   -0x10(%ebp)
c0101c6b:	ff 75 f4             	push   -0xc(%ebp)
c0101c6e:	68 f6 71 10 c0       	push   $0xc01071f6
c0101c73:	ff 75 ec             	push   -0x14(%ebp)
c0101c76:	e8 ce 4b 00 00       	call   c0106849 <sprintf_>
c0101c7b:	83 c4 10             	add    $0x10,%esp
c0101c7e:	83 ec 0c             	sub    $0xc,%esp
c0101c81:	ff 75 f4             	push   -0xc(%ebp)
c0101c84:	e8 52 11 00 00       	call   c0102ddb <k_mem_heap_free>
c0101c89:	83 c4 10             	add    $0x10,%esp
c0101c8c:	83 ec 0c             	sub    $0xc,%esp
c0101c8f:	ff 75 f0             	push   -0x10(%ebp)
c0101c92:	e8 44 11 00 00       	call   c0102ddb <k_mem_heap_free>
c0101c97:	83 c4 10             	add    $0x10,%esp
c0101c9a:	8b 45 ec             	mov    -0x14(%ebp),%eax
c0101c9d:	8b 5d fc             	mov    -0x4(%ebp),%ebx
c0101ca0:	c9                   	leave
c0101ca1:	c3                   	ret

c0101ca2 <tree_create>:
c0101ca2:	55                   	push   %ebp
c0101ca3:	89 e5                	mov    %esp,%ebp
c0101ca5:	83 ec 18             	sub    $0x18,%esp
c0101ca8:	83 ec 0c             	sub    $0xc,%esp
c0101cab:	6a 0c                	push   $0xc
c0101cad:	e8 b9 0f 00 00       	call   c0102c6b <k_mem_heap_alloc>
c0101cb2:	83 c4 10             	add    $0x10,%esp
c0101cb5:	89 45 f4             	mov    %eax,-0xc(%ebp)
c0101cb8:	8b 45 f4             	mov    -0xc(%ebp),%eax
c0101cbb:	c7 40 08 00 00 00 00 	movl   $0x0,0x8(%eax)
c0101cc2:	8b 45 f4             	mov    -0xc(%ebp),%eax
c0101cc5:	c7 40 04 00 00 00 00 	movl   $0x0,0x4(%eax)
c0101ccc:	8b 45 f4             	mov    -0xc(%ebp),%eax
c0101ccf:	c7 00 00 00 00 00    	movl   $0x0,(%eax)
c0101cd5:	8b 45 f4             	mov    -0xc(%ebp),%eax
c0101cd8:	c9                   	leave
c0101cd9:	c3                   	ret

c0101cda <tree_set_root>:
c0101cda:	55                   	push   %ebp
c0101cdb:	89 e5                	mov    %esp,%ebp
c0101cdd:	83 ec 08             	sub    $0x8,%esp
c0101ce0:	83 ec 04             	sub    $0x4,%esp
c0101ce3:	6a 00                	push   $0x0
c0101ce5:	ff 75 0c             	push   0xc(%ebp)
c0101ce8:	ff 75 08             	push   0x8(%ebp)
c0101ceb:	e8 df 00 00 00       	call   c0101dcf <tree_insert_node>
c0101cf0:	83 c4 10             	add    $0x10,%esp
c0101cf3:	8b 45 08             	mov    0x8(%ebp),%eax
c0101cf6:	8b 55 0c             	mov    0xc(%ebp),%edx
c0101cf9:	89 10                	mov    %edx,(%eax)
c0101cfb:	90                   	nop
c0101cfc:	c9                   	leave
c0101cfd:	c3                   	ret

c0101cfe <tree_create_node>:
c0101cfe:	55                   	push   %ebp
c0101cff:	89 e5                	mov    %esp,%ebp
c0101d01:	83 ec 18             	sub    $0x18,%esp
c0101d04:	83 ec 0c             	sub    $0xc,%esp
c0101d07:	6a 14                	push   $0x14
c0101d09:	e8 5d 0f 00 00       	call   c0102c6b <k_mem_heap_alloc>
c0101d0e:	83 c4 10             	add    $0x10,%esp
c0101d11:	89 45 f4             	mov    %eax,-0xc(%ebp)
c0101d14:	8b 45 f4             	mov    -0xc(%ebp),%eax
c0101d17:	8b 55 08             	mov    0x8(%ebp),%edx
c0101d1a:	89 50 10             	mov    %edx,0x10(%eax)
c0101d1d:	8b 45 f4             	mov    -0xc(%ebp),%eax
c0101d20:	c7 40 0c 00 00 00 00 	movl   $0x0,0xc(%eax)
c0101d27:	8b 45 f4             	mov    -0xc(%ebp),%eax
c0101d2a:	c7 40 08 00 00 00 00 	movl   $0x0,0x8(%eax)
c0101d31:	8b 45 f4             	mov    -0xc(%ebp),%eax
c0101d34:	c7 40 04 00 00 00 00 	movl   $0x0,0x4(%eax)
c0101d3b:	8b 45 f4             	mov    -0xc(%ebp),%eax
c0101d3e:	c7 00 00 00 00 00    	movl   $0x0,(%eax)
c0101d44:	8b 45 f4             	mov    -0xc(%ebp),%eax
c0101d47:	c9                   	leave
c0101d48:	c3                   	ret

c0101d49 <tree_free_node>:
c0101d49:	55                   	push   %ebp
c0101d4a:	89 e5                	mov    %esp,%ebp
c0101d4c:	83 ec 08             	sub    $0x8,%esp
c0101d4f:	8b 45 08             	mov    0x8(%ebp),%eax
c0101d52:	8b 40 08             	mov    0x8(%eax),%eax
c0101d55:	83 ec 0c             	sub    $0xc,%esp
c0101d58:	50                   	push   %eax
c0101d59:	e8 7d 10 00 00       	call   c0102ddb <k_mem_heap_free>
c0101d5e:	83 c4 10             	add    $0x10,%esp
c0101d61:	83 ec 0c             	sub    $0xc,%esp
c0101d64:	ff 75 08             	push   0x8(%ebp)
c0101d67:	e8 6f 10 00 00       	call   c0102ddb <k_mem_heap_free>
c0101d6c:	83 c4 10             	add    $0x10,%esp
c0101d6f:	90                   	nop
c0101d70:	c9                   	leave
c0101d71:	c3                   	ret

c0101d72 <tree_free>:
c0101d72:	55                   	push   %ebp
c0101d73:	89 e5                	mov    %esp,%ebp
c0101d75:	83 ec 18             	sub    $0x18,%esp
c0101d78:	c7 45 f4 00 00 00 00 	movl   $0x0,-0xc(%ebp)
c0101d7f:	eb 20                	jmp    c0101da1 <tree_free+0x2f>
c0101d81:	8b 45 08             	mov    0x8(%ebp),%eax
c0101d84:	8b 40 04             	mov    0x4(%eax),%eax
c0101d87:	8b 55 f4             	mov    -0xc(%ebp),%edx
c0101d8a:	c1 e2 02             	shl    $0x2,%edx
c0101d8d:	01 d0                	add    %edx,%eax
c0101d8f:	8b 00                	mov    (%eax),%eax
c0101d91:	83 ec 0c             	sub    $0xc,%esp
c0101d94:	50                   	push   %eax
c0101d95:	e8 af ff ff ff       	call   c0101d49 <tree_free_node>
c0101d9a:	83 c4 10             	add    $0x10,%esp
c0101d9d:	83 45 f4 01          	addl   $0x1,-0xc(%ebp)
c0101da1:	8b 45 08             	mov    0x8(%ebp),%eax
c0101da4:	8b 40 08             	mov    0x8(%eax),%eax
c0101da7:	39 45 f4             	cmp    %eax,-0xc(%ebp)
c0101daa:	72 d5                	jb     c0101d81 <tree_free+0xf>
c0101dac:	8b 45 08             	mov    0x8(%ebp),%eax
c0101daf:	8b 40 04             	mov    0x4(%eax),%eax
c0101db2:	83 ec 0c             	sub    $0xc,%esp
c0101db5:	50                   	push   %eax
c0101db6:	e8 20 10 00 00       	call   c0102ddb <k_mem_heap_free>
c0101dbb:	83 c4 10             	add    $0x10,%esp
c0101dbe:	83 ec 0c             	sub    $0xc,%esp
c0101dc1:	ff 75 08             	push   0x8(%ebp)
c0101dc4:	e8 12 10 00 00       	call   c0102ddb <k_mem_heap_free>
c0101dc9:	83 c4 10             	add    $0x10,%esp
c0101dcc:	90                   	nop
c0101dcd:	c9                   	leave
c0101dce:	c3                   	ret

c0101dcf <tree_insert_node>:
c0101dcf:	55                   	push   %ebp
c0101dd0:	89 e5                	mov    %esp,%ebp
c0101dd2:	83 ec 08             	sub    $0x8,%esp
c0101dd5:	83 ec 08             	sub    $0x8,%esp
c0101dd8:	ff 75 0c             	push   0xc(%ebp)
c0101ddb:	ff 75 08             	push   0x8(%ebp)
c0101dde:	e8 f6 01 00 00       	call   c0101fd9 <tree_contains_node>
c0101de3:	83 c4 10             	add    $0x10,%esp
c0101de6:	84 c0                	test   %al,%al
c0101de8:	0f 85 07 01 00 00    	jne    c0101ef5 <tree_insert_node+0x126>
c0101dee:	8b 45 08             	mov    0x8(%ebp),%eax
c0101df1:	8b 40 08             	mov    0x8(%eax),%eax
c0101df4:	8d 50 01             	lea    0x1(%eax),%edx
c0101df7:	8b 45 08             	mov    0x8(%ebp),%eax
c0101dfa:	89 50 08             	mov    %edx,0x8(%eax)
c0101dfd:	8b 45 08             	mov    0x8(%ebp),%eax
c0101e00:	8b 40 08             	mov    0x8(%eax),%eax
c0101e03:	83 f8 01             	cmp    $0x1,%eax
c0101e06:	75 15                	jne    c0101e1d <tree_insert_node+0x4e>
c0101e08:	83 ec 0c             	sub    $0xc,%esp
c0101e0b:	6a 14                	push   $0x14
c0101e0d:	e8 59 0e 00 00       	call   c0102c6b <k_mem_heap_alloc>
c0101e12:	83 c4 10             	add    $0x10,%esp
c0101e15:	8b 55 08             	mov    0x8(%ebp),%edx
c0101e18:	89 42 04             	mov    %eax,0x4(%edx)
c0101e1b:	eb 2b                	jmp    c0101e48 <tree_insert_node+0x79>
c0101e1d:	8b 45 08             	mov    0x8(%ebp),%eax
c0101e20:	8b 50 08             	mov    0x8(%eax),%edx
c0101e23:	89 d0                	mov    %edx,%eax
c0101e25:	c1 e0 02             	shl    $0x2,%eax
c0101e28:	01 d0                	add    %edx,%eax
c0101e2a:	c1 e0 02             	shl    $0x2,%eax
c0101e2d:	89 c2                	mov    %eax,%edx
c0101e2f:	8b 45 08             	mov    0x8(%ebp),%eax
c0101e32:	8b 40 04             	mov    0x4(%eax),%eax
c0101e35:	83 ec 08             	sub    $0x8,%esp
c0101e38:	52                   	push   %edx
c0101e39:	50                   	push   %eax
c0101e3a:	e8 e2 0f 00 00       	call   c0102e21 <k_mem_heap_realloc>
c0101e3f:	83 c4 10             	add    $0x10,%esp
c0101e42:	8b 55 08             	mov    0x8(%ebp),%edx
c0101e45:	89 42 04             	mov    %eax,0x4(%edx)
c0101e48:	8b 45 08             	mov    0x8(%ebp),%eax
c0101e4b:	8b 50 04             	mov    0x4(%eax),%edx
c0101e4e:	8b 45 08             	mov    0x8(%ebp),%eax
c0101e51:	8b 40 08             	mov    0x8(%eax),%eax
c0101e54:	05 ff ff ff 3f       	add    $0x3fffffff,%eax
c0101e59:	c1 e0 02             	shl    $0x2,%eax
c0101e5c:	01 c2                	add    %eax,%edx
c0101e5e:	8b 45 0c             	mov    0xc(%ebp),%eax
c0101e61:	89 02                	mov    %eax,(%edx)
c0101e63:	8b 45 0c             	mov    0xc(%ebp),%eax
c0101e66:	8b 55 08             	mov    0x8(%ebp),%edx
c0101e69:	89 10                	mov    %edx,(%eax)
c0101e6b:	83 7d 10 00          	cmpl   $0x0,0x10(%ebp)
c0101e6f:	0f 84 81 00 00 00    	je     c0101ef6 <tree_insert_node+0x127>
c0101e75:	8b 45 0c             	mov    0xc(%ebp),%eax
c0101e78:	8b 55 10             	mov    0x10(%ebp),%edx
c0101e7b:	89 50 04             	mov    %edx,0x4(%eax)
c0101e7e:	8b 45 10             	mov    0x10(%ebp),%eax
c0101e81:	8b 40 0c             	mov    0xc(%eax),%eax
c0101e84:	8d 50 01             	lea    0x1(%eax),%edx
c0101e87:	8b 45 10             	mov    0x10(%ebp),%eax
c0101e8a:	89 50 0c             	mov    %edx,0xc(%eax)
c0101e8d:	8b 45 10             	mov    0x10(%ebp),%eax
c0101e90:	8b 40 0c             	mov    0xc(%eax),%eax
c0101e93:	83 f8 01             	cmp    $0x1,%eax
c0101e96:	75 15                	jne    c0101ead <tree_insert_node+0xde>
c0101e98:	83 ec 0c             	sub    $0xc,%esp
c0101e9b:	6a 14                	push   $0x14
c0101e9d:	e8 c9 0d 00 00       	call   c0102c6b <k_mem_heap_alloc>
c0101ea2:	83 c4 10             	add    $0x10,%esp
c0101ea5:	8b 55 10             	mov    0x10(%ebp),%edx
c0101ea8:	89 42 08             	mov    %eax,0x8(%edx)
c0101eab:	eb 2b                	jmp    c0101ed8 <tree_insert_node+0x109>
c0101ead:	8b 45 10             	mov    0x10(%ebp),%eax
c0101eb0:	8b 50 0c             	mov    0xc(%eax),%edx
c0101eb3:	89 d0                	mov    %edx,%eax
c0101eb5:	c1 e0 02             	shl    $0x2,%eax
c0101eb8:	01 d0                	add    %edx,%eax
c0101eba:	c1 e0 02             	shl    $0x2,%eax
c0101ebd:	89 c2                	mov    %eax,%edx
c0101ebf:	8b 45 10             	mov    0x10(%ebp),%eax
c0101ec2:	8b 40 08             	mov    0x8(%eax),%eax
c0101ec5:	83 ec 08             	sub    $0x8,%esp
c0101ec8:	52                   	push   %edx
c0101ec9:	50                   	push   %eax
c0101eca:	e8 52 0f 00 00       	call   c0102e21 <k_mem_heap_realloc>
c0101ecf:	83 c4 10             	add    $0x10,%esp
c0101ed2:	8b 55 10             	mov    0x10(%ebp),%edx
c0101ed5:	89 42 08             	mov    %eax,0x8(%edx)
c0101ed8:	8b 45 10             	mov    0x10(%ebp),%eax
c0101edb:	8b 50 08             	mov    0x8(%eax),%edx
c0101ede:	8b 45 10             	mov    0x10(%ebp),%eax
c0101ee1:	8b 40 0c             	mov    0xc(%eax),%eax
c0101ee4:	05 ff ff ff 3f       	add    $0x3fffffff,%eax
c0101ee9:	c1 e0 02             	shl    $0x2,%eax
c0101eec:	01 c2                	add    %eax,%edx
c0101eee:	8b 45 0c             	mov    0xc(%ebp),%eax
c0101ef1:	89 02                	mov    %eax,(%edx)
c0101ef3:	eb 01                	jmp    c0101ef6 <tree_insert_node+0x127>
c0101ef5:	90                   	nop
c0101ef6:	c9                   	leave
c0101ef7:	c3                   	ret

c0101ef8 <tree_remove_node>:
c0101ef8:	55                   	push   %ebp
c0101ef9:	89 e5                	mov    %esp,%ebp
c0101efb:	83 ec 18             	sub    $0x18,%esp
c0101efe:	c7 45 f4 00 00 00 00 	movl   $0x0,-0xc(%ebp)
c0101f05:	c6 45 f3 00          	movb   $0x0,-0xd(%ebp)
c0101f09:	c7 45 ec 00 00 00 00 	movl   $0x0,-0x14(%ebp)
c0101f10:	eb 39                	jmp    c0101f4b <tree_remove_node+0x53>
c0101f12:	8b 45 08             	mov    0x8(%ebp),%eax
c0101f15:	8b 40 04             	mov    0x4(%eax),%eax
c0101f18:	8b 55 ec             	mov    -0x14(%ebp),%edx
c0101f1b:	c1 e2 02             	shl    $0x2,%edx
c0101f1e:	01 d0                	add    %edx,%eax
c0101f20:	8b 00                	mov    (%eax),%eax
c0101f22:	39 45 0c             	cmp    %eax,0xc(%ebp)
c0101f25:	75 20                	jne    c0101f47 <tree_remove_node+0x4f>
c0101f27:	8b 45 08             	mov    0x8(%ebp),%eax
c0101f2a:	8b 40 04             	mov    0x4(%eax),%eax
c0101f2d:	8b 55 ec             	mov    -0x14(%ebp),%edx
c0101f30:	c1 e2 02             	shl    $0x2,%edx
c0101f33:	01 d0                	add    %edx,%eax
c0101f35:	c7 00 00 00 00 00    	movl   $0x0,(%eax)
c0101f3b:	8b 45 ec             	mov    -0x14(%ebp),%eax
c0101f3e:	89 45 f4             	mov    %eax,-0xc(%ebp)
c0101f41:	c6 45 f3 01          	movb   $0x1,-0xd(%ebp)
c0101f45:	eb 0f                	jmp    c0101f56 <tree_remove_node+0x5e>
c0101f47:	83 45 ec 01          	addl   $0x1,-0x14(%ebp)
c0101f4b:	8b 45 08             	mov    0x8(%ebp),%eax
c0101f4e:	8b 40 08             	mov    0x8(%eax),%eax
c0101f51:	39 45 ec             	cmp    %eax,-0x14(%ebp)
c0101f54:	72 bc                	jb     c0101f12 <tree_remove_node+0x1a>
c0101f56:	80 7d f3 00          	cmpb   $0x0,-0xd(%ebp)
c0101f5a:	74 7a                	je     c0101fd6 <tree_remove_node+0xde>
c0101f5c:	8b 45 08             	mov    0x8(%ebp),%eax
c0101f5f:	8b 40 08             	mov    0x8(%eax),%eax
c0101f62:	8d 50 ff             	lea    -0x1(%eax),%edx
c0101f65:	8b 45 08             	mov    0x8(%ebp),%eax
c0101f68:	89 50 08             	mov    %edx,0x8(%eax)
c0101f6b:	8b 45 08             	mov    0x8(%ebp),%eax
c0101f6e:	8b 40 08             	mov    0x8(%eax),%eax
c0101f71:	85 c0                	test   %eax,%eax
c0101f73:	74 4f                	je     c0101fc4 <tree_remove_node+0xcc>
c0101f75:	8b 45 08             	mov    0x8(%ebp),%eax
c0101f78:	8b 40 08             	mov    0x8(%eax),%eax
c0101f7b:	2b 45 f4             	sub    -0xc(%ebp),%eax
c0101f7e:	8d 48 01             	lea    0x1(%eax),%ecx
c0101f81:	8b 45 08             	mov    0x8(%ebp),%eax
c0101f84:	8b 40 04             	mov    0x4(%eax),%eax
c0101f87:	8b 55 f4             	mov    -0xc(%ebp),%edx
c0101f8a:	c1 e2 02             	shl    $0x2,%edx
c0101f8d:	01 c2                	add    %eax,%edx
c0101f8f:	8b 45 08             	mov    0x8(%ebp),%eax
c0101f92:	8b 40 04             	mov    0x4(%eax),%eax
c0101f95:	83 ec 04             	sub    $0x4,%esp
c0101f98:	51                   	push   %ecx
c0101f99:	52                   	push   %edx
c0101f9a:	50                   	push   %eax
c0101f9b:	e8 00 4a 00 00       	call   c01069a0 <memmove>
c0101fa0:	83 c4 10             	add    $0x10,%esp
c0101fa3:	8b 45 08             	mov    0x8(%ebp),%eax
c0101fa6:	8b 50 08             	mov    0x8(%eax),%edx
c0101fa9:	8b 45 08             	mov    0x8(%ebp),%eax
c0101fac:	8b 40 04             	mov    0x4(%eax),%eax
c0101faf:	83 ec 08             	sub    $0x8,%esp
c0101fb2:	52                   	push   %edx
c0101fb3:	50                   	push   %eax
c0101fb4:	e8 68 0e 00 00       	call   c0102e21 <k_mem_heap_realloc>
c0101fb9:	83 c4 10             	add    $0x10,%esp
c0101fbc:	8b 55 08             	mov    0x8(%ebp),%edx
c0101fbf:	89 42 04             	mov    %eax,0x4(%edx)
c0101fc2:	eb 12                	jmp    c0101fd6 <tree_remove_node+0xde>
c0101fc4:	8b 45 08             	mov    0x8(%ebp),%eax
c0101fc7:	8b 40 04             	mov    0x4(%eax),%eax
c0101fca:	83 ec 0c             	sub    $0xc,%esp
c0101fcd:	50                   	push   %eax
c0101fce:	e8 08 0e 00 00       	call   c0102ddb <k_mem_heap_free>
c0101fd3:	83 c4 10             	add    $0x10,%esp
c0101fd6:	90                   	nop
c0101fd7:	c9                   	leave
c0101fd8:	c3                   	ret

c0101fd9 <tree_contains_node>:
c0101fd9:	55                   	push   %ebp
c0101fda:	89 e5                	mov    %esp,%ebp
c0101fdc:	8b 45 0c             	mov    0xc(%ebp),%eax
c0101fdf:	8b 00                	mov    (%eax),%eax
c0101fe1:	39 45 08             	cmp    %eax,0x8(%ebp)
c0101fe4:	0f 94 c0             	sete   %al
c0101fe7:	5d                   	pop    %ebp
c0101fe8:	c3                   	ret
c0101fe9:	66 90                	xchg   %ax,%ax
c0101feb:	66 90                	xchg   %ax,%ax
c0101fed:	66 90                	xchg   %ax,%ax
c0101fef:	90                   	nop

c0101ff0 <k_mem_load_gdt>:
c0101ff0:	8b 44 24 04          	mov    0x4(%esp),%eax
c0101ff4:	0f 01 10             	lgdtl  (%eax)
c0101ff7:	66 b8 10 00          	mov    $0x10,%ax
c0101ffb:	8e d8                	mov    %eax,%ds
c0101ffd:	8e c0                	mov    %eax,%es
c0101fff:	8e e0                	mov    %eax,%fs
c0102001:	8e e8                	mov    %eax,%gs
c0102003:	8e d0                	mov    %eax,%ss
c0102005:	ea 0c 20 10 c0 08 00 	ljmp   $0x8,$0xc010200c

c010200c <k_mem_load_gdt.flush>:
c010200c:	c3                   	ret

c010200d <k_mem_gdt_create_entry>:
c010200d:	55                   	push   %ebp
c010200e:	89 e5                	mov    %esp,%ebp
c0102010:	83 ec 0c             	sub    $0xc,%esp
c0102013:	8b 4d 08             	mov    0x8(%ebp),%ecx
c0102016:	8b 55 14             	mov    0x14(%ebp),%edx
c0102019:	8b 45 18             	mov    0x18(%ebp),%eax
c010201c:	88 4d fc             	mov    %cl,-0x4(%ebp)
c010201f:	88 55 f8             	mov    %dl,-0x8(%ebp)
c0102022:	88 45 f4             	mov    %al,-0xc(%ebp)
c0102025:	0f b6 45 fc          	movzbl -0x4(%ebp),%eax
c0102029:	8b 55 0c             	mov    0xc(%ebp),%edx
c010202c:	66 89 14 c5 22 b0 10 	mov    %dx,-0x3fef4fde(,%eax,8)
c0102033:	c0 
c0102034:	8b 45 0c             	mov    0xc(%ebp),%eax
c0102037:	c1 e8 10             	shr    $0x10,%eax
c010203a:	89 c2                	mov    %eax,%edx
c010203c:	0f b6 45 fc          	movzbl -0x4(%ebp),%eax
c0102040:	88 14 c5 24 b0 10 c0 	mov    %dl,-0x3fef4fdc(,%eax,8)
c0102047:	8b 45 0c             	mov    0xc(%ebp),%eax
c010204a:	c1 e8 18             	shr    $0x18,%eax
c010204d:	89 c2                	mov    %eax,%edx
c010204f:	0f b6 45 fc          	movzbl -0x4(%ebp),%eax
c0102053:	88 14 c5 27 b0 10 c0 	mov    %dl,-0x3fef4fd9(,%eax,8)
c010205a:	0f b6 45 fc          	movzbl -0x4(%ebp),%eax
c010205e:	8b 55 10             	mov    0x10(%ebp),%edx
c0102061:	66 89 14 c5 20 b0 10 	mov    %dx,-0x3fef4fe0(,%eax,8)
c0102068:	c0 
c0102069:	8b 45 10             	mov    0x10(%ebp),%eax
c010206c:	c1 e8 10             	shr    $0x10,%eax
c010206f:	89 c2                	mov    %eax,%edx
c0102071:	0f b6 45 fc          	movzbl -0x4(%ebp),%eax
c0102075:	83 e2 0f             	and    $0xf,%edx
c0102078:	88 14 c5 26 b0 10 c0 	mov    %dl,-0x3fef4fda(,%eax,8)
c010207f:	0f b6 45 fc          	movzbl -0x4(%ebp),%eax
c0102083:	0f b6 04 c5 26 b0 10 	movzbl -0x3fef4fda(,%eax,8),%eax
c010208a:	c0 
c010208b:	89 c2                	mov    %eax,%edx
c010208d:	0f b6 45 f4          	movzbl -0xc(%ebp),%eax
c0102091:	83 e0 f0             	and    $0xfffffff0,%eax
c0102094:	09 c2                	or     %eax,%edx
c0102096:	0f b6 45 fc          	movzbl -0x4(%ebp),%eax
c010209a:	88 14 c5 26 b0 10 c0 	mov    %dl,-0x3fef4fda(,%eax,8)
c01020a1:	0f b6 45 fc          	movzbl -0x4(%ebp),%eax
c01020a5:	0f b6 55 f8          	movzbl -0x8(%ebp),%edx
c01020a9:	88 14 c5 25 b0 10 c0 	mov    %dl,-0x3fef4fdb(,%eax,8)
c01020b0:	90                   	nop
c01020b1:	c9                   	leave
c01020b2:	c3                   	ret

c01020b3 <k_mem_gdt_init>:
c01020b3:	55                   	push   %ebp
c01020b4:	89 e5                	mov    %esp,%ebp
c01020b6:	83 ec 08             	sub    $0x8,%esp
c01020b9:	66 c7 05 50 b0 10 c0 	movw   $0x2f,0xc010b050
c01020c0:	2f 00 
c01020c2:	b8 20 b0 10 c0       	mov    $0xc010b020,%eax
c01020c7:	a3 52 b0 10 c0       	mov    %eax,0xc010b052
c01020cc:	6a 00                	push   $0x0
c01020ce:	6a 00                	push   $0x0
c01020d0:	6a 00                	push   $0x0
c01020d2:	6a 00                	push   $0x0
c01020d4:	6a 00                	push   $0x0
c01020d6:	e8 32 ff ff ff       	call   c010200d <k_mem_gdt_create_entry>
c01020db:	83 c4 14             	add    $0x14,%esp
c01020de:	68 cf 00 00 00       	push   $0xcf
c01020e3:	68 9a 00 00 00       	push   $0x9a
c01020e8:	6a ff                	push   $0xffffffff
c01020ea:	6a 00                	push   $0x0
c01020ec:	6a 01                	push   $0x1
c01020ee:	e8 1a ff ff ff       	call   c010200d <k_mem_gdt_create_entry>
c01020f3:	83 c4 14             	add    $0x14,%esp
c01020f6:	68 cf 00 00 00       	push   $0xcf
c01020fb:	68 92 00 00 00       	push   $0x92
c0102100:	6a ff                	push   $0xffffffff
c0102102:	6a 00                	push   $0x0
c0102104:	6a 02                	push   $0x2
c0102106:	e8 02 ff ff ff       	call   c010200d <k_mem_gdt_create_entry>
c010210b:	83 c4 14             	add    $0x14,%esp
c010210e:	68 cf 00 00 00       	push   $0xcf
c0102113:	68 fa 00 00 00       	push   $0xfa
c0102118:	6a ff                	push   $0xffffffff
c010211a:	6a 00                	push   $0x0
c010211c:	6a 03                	push   $0x3
c010211e:	e8 ea fe ff ff       	call   c010200d <k_mem_gdt_create_entry>
c0102123:	83 c4 14             	add    $0x14,%esp
c0102126:	68 cf 00 00 00       	push   $0xcf
c010212b:	68 f2 00 00 00       	push   $0xf2
c0102130:	6a ff                	push   $0xffffffff
c0102132:	6a 00                	push   $0x0
c0102134:	6a 04                	push   $0x4
c0102136:	e8 d2 fe ff ff       	call   c010200d <k_mem_gdt_create_entry>
c010213b:	83 c4 14             	add    $0x14,%esp
c010213e:	b8 60 b0 10 c0       	mov    $0xc010b060,%eax
c0102143:	6a 00                	push   $0x0
c0102145:	68 e9 00 00 00       	push   $0xe9
c010214a:	6a 68                	push   $0x68
c010214c:	50                   	push   %eax
c010214d:	6a 05                	push   $0x5
c010214f:	e8 b9 fe ff ff       	call   c010200d <k_mem_gdt_create_entry>
c0102154:	83 c4 14             	add    $0x14,%esp
c0102157:	83 ec 04             	sub    $0x4,%esp
c010215a:	6a 68                	push   $0x68
c010215c:	6a 00                	push   $0x0
c010215e:	68 60 b0 10 c0       	push   $0xc010b060
c0102163:	e8 c7 47 00 00       	call   c010692f <memset>
c0102168:	83 c4 10             	add    $0x10,%esp
c010216b:	c7 05 68 b0 10 c0 10 	movl   $0x10,0xc010b068
c0102172:	00 00 00 
c0102175:	c7 05 64 b0 10 c0 00 	movl   $0x0,0xc010b064
c010217c:	00 00 00 
c010217f:	b8 50 b0 10 c0       	mov    $0xc010b050,%eax
c0102184:	83 ec 0c             	sub    $0xc,%esp
c0102187:	50                   	push   %eax
c0102188:	e8 63 fe ff ff       	call   c0101ff0 <k_mem_load_gdt>
c010218d:	83 c4 10             	add    $0x10,%esp
c0102190:	90                   	nop
c0102191:	c9                   	leave
c0102192:	c3                   	ret

c0102193 <k_mem_gdt_set_stack>:
c0102193:	55                   	push   %ebp
c0102194:	89 e5                	mov    %esp,%ebp
c0102196:	8b 45 08             	mov    0x8(%ebp),%eax
c0102199:	a3 64 b0 10 c0       	mov    %eax,0xc010b064
c010219e:	90                   	nop
c010219f:	5d                   	pop    %ebp
c01021a0:	c3                   	ret
c01021a1:	66 90                	xchg   %ax,%ax
c01021a3:	66 90                	xchg   %ax,%ax
c01021a5:	66 90                	xchg   %ax,%ax
c01021a7:	66 90                	xchg   %ax,%ax
c01021a9:	66 90                	xchg   %ax,%ax
c01021ab:	66 90                	xchg   %ax,%ax
c01021ad:	66 90                	xchg   %ax,%ax
c01021af:	90                   	nop

c01021b0 <k_mem_paging_get_pd>:
c01021b0:	0f 20 d8             	mov    %cr3,%eax
c01021b3:	c3                   	ret

c01021b4 <k_mem_paging_get_fault_addr>:
c01021b4:	0f 20 d0             	mov    %cr2,%eax
c01021b7:	c3                   	ret

c01021b8 <__pf_handler>:
c01021b8:	55                   	push   %ebp
c01021b9:	89 e5                	mov    %esp,%ebp
c01021bb:	81 ec 08 04 00 00    	sub    $0x408,%esp
c01021c1:	e8 ee ff ff ff       	call   c01021b4 <k_mem_paging_get_fault_addr>
c01021c6:	83 ec 04             	sub    $0x4,%esp
c01021c9:	50                   	push   %eax
c01021ca:	68 fc 71 10 c0       	push   $0xc01071fc
c01021cf:	8d 85 f8 fb ff ff    	lea    -0x408(%ebp),%eax
c01021d5:	50                   	push   %eax
c01021d6:	e8 6e 46 00 00       	call   c0106849 <sprintf_>
c01021db:	83 c4 10             	add    $0x10,%esp
c01021de:	83 ec 08             	sub    $0x8,%esp
c01021e1:	ff 75 08             	push   0x8(%ebp)
c01021e4:	8d 85 f8 fb ff ff    	lea    -0x408(%ebp),%eax
c01021ea:	50                   	push   %eax
c01021eb:	e8 f2 f5 ff ff       	call   c01017e2 <k_panic>
c01021f0:	83 c4 10             	add    $0x10,%esp

c01021f3 <k_mem_paging_init>:
c01021f3:	55                   	push   %ebp
c01021f4:	89 e5                	mov    %esp,%ebp
c01021f6:	83 ec 18             	sub    $0x18,%esp
c01021f9:	83 ec 08             	sub    $0x8,%esp
c01021fc:	68 b8 21 10 c0       	push   $0xc01021b8
c0102201:	6a 0e                	push   $0xe
c0102203:	e8 22 11 00 00       	call   c010332a <k_int_isr_setup_handler>
c0102208:	83 c4 10             	add    $0x10,%esp
c010220b:	e8 a0 ff ff ff       	call   c01021b0 <k_mem_paging_get_pd>
c0102210:	2d 00 00 00 40       	sub    $0x40000000,%eax
c0102215:	89 45 f4             	mov    %eax,-0xc(%ebp)
c0102218:	8b 45 f4             	mov    -0xc(%ebp),%eax
c010221b:	05 fc 0f 00 40       	add    $0x40000ffc,%eax
c0102220:	89 45 f0             	mov    %eax,-0x10(%ebp)
c0102223:	8b 45 f0             	mov    -0x10(%ebp),%eax
c0102226:	25 00 f0 ff ff       	and    $0xfffff000,%eax
c010222b:	89 c2                	mov    %eax,%edx
c010222d:	8b 45 f4             	mov    -0xc(%ebp),%eax
c0102230:	05 fc 0f 00 00       	add    $0xffc,%eax
c0102235:	83 ca 03             	or     $0x3,%edx
c0102238:	89 10                	mov    %edx,(%eax)
c010223a:	90                   	nop
c010223b:	c9                   	leave
c010223c:	c3                   	ret

c010223d <k_mem_paging_virt2phys>:
c010223d:	55                   	push   %ebp
c010223e:	89 e5                	mov    %esp,%ebp
c0102240:	83 ec 10             	sub    $0x10,%esp
c0102243:	8b 45 08             	mov    0x8(%ebp),%eax
c0102246:	c1 e8 16             	shr    $0x16,%eax
c0102249:	66 89 45 fe          	mov    %ax,-0x2(%ebp)
c010224d:	a1 00 a0 10 c0       	mov    0xc010a000,%eax
c0102252:	0f b7 55 fe          	movzwl -0x2(%ebp),%edx
c0102256:	c1 e2 02             	shl    $0x2,%edx
c0102259:	01 d0                	add    %edx,%eax
c010225b:	8b 00                	mov    (%eax),%eax
c010225d:	89 45 f8             	mov    %eax,-0x8(%ebp)
c0102260:	8b 45 f8             	mov    -0x8(%ebp),%eax
c0102263:	83 e0 01             	and    $0x1,%eax
c0102266:	85 c0                	test   %eax,%eax
c0102268:	75 07                	jne    c0102271 <k_mem_paging_virt2phys+0x34>
c010226a:	b8 00 00 00 00       	mov    $0x0,%eax
c010226f:	eb 73                	jmp    c01022e4 <k_mem_paging_virt2phys+0xa7>
c0102271:	8b 45 f8             	mov    -0x8(%ebp),%eax
c0102274:	25 80 00 00 00       	and    $0x80,%eax
c0102279:	85 c0                	test   %eax,%eax
c010227b:	74 23                	je     c01022a0 <k_mem_paging_virt2phys+0x63>
c010227d:	8b 45 f8             	mov    -0x8(%ebp),%eax
c0102280:	c1 e0 08             	shl    $0x8,%eax
c0102283:	25 00 00 00 c0       	and    $0xc0000000,%eax
c0102288:	89 c2                	mov    %eax,%edx
c010228a:	8b 45 f8             	mov    -0x8(%ebp),%eax
c010228d:	25 00 e0 1f 00       	and    $0x1fe000,%eax
c0102292:	09 c2                	or     %eax,%edx
c0102294:	8b 45 08             	mov    0x8(%ebp),%eax
c0102297:	25 00 f0 3f 00       	and    $0x3ff000,%eax
c010229c:	01 d0                	add    %edx,%eax
c010229e:	eb 44                	jmp    c01022e4 <k_mem_paging_virt2phys+0xa7>
c01022a0:	0f b7 45 fe          	movzwl -0x2(%ebp),%eax
c01022a4:	c1 e0 0c             	shl    $0xc,%eax
c01022a7:	2d 00 00 40 00       	sub    $0x400000,%eax
c01022ac:	89 45 f4             	mov    %eax,-0xc(%ebp)
c01022af:	8b 45 08             	mov    0x8(%ebp),%eax
c01022b2:	c1 e8 0c             	shr    $0xc,%eax
c01022b5:	25 ff 03 00 00       	and    $0x3ff,%eax
c01022ba:	8d 14 85 00 00 00 00 	lea    0x0(,%eax,4),%edx
c01022c1:	8b 45 f4             	mov    -0xc(%ebp),%eax
c01022c4:	01 d0                	add    %edx,%eax
c01022c6:	8b 00                	mov    (%eax),%eax
c01022c8:	89 45 f0             	mov    %eax,-0x10(%ebp)
c01022cb:	8b 45 f0             	mov    -0x10(%ebp),%eax
c01022ce:	83 e0 01             	and    $0x1,%eax
c01022d1:	85 c0                	test   %eax,%eax
c01022d3:	74 0a                	je     c01022df <k_mem_paging_virt2phys+0xa2>
c01022d5:	8b 45 f0             	mov    -0x10(%ebp),%eax
c01022d8:	25 00 f0 ff ff       	and    $0xfffff000,%eax
c01022dd:	eb 05                	jmp    c01022e4 <k_mem_paging_virt2phys+0xa7>
c01022df:	b8 00 00 00 00       	mov    $0x0,%eax
c01022e4:	c9                   	leave
c01022e5:	c3                   	ret

c01022e6 <k_mem_paging_set_pd>:
c01022e6:	55                   	push   %ebp
c01022e7:	89 e5                	mov    %esp,%ebp
c01022e9:	83 ec 04             	sub    $0x4,%esp
c01022ec:	8b 45 0c             	mov    0xc(%ebp),%eax
c01022ef:	88 45 fc             	mov    %al,-0x4(%ebp)
c01022f2:	80 7d fc 00          	cmpb   $0x0,-0x4(%ebp)
c01022f6:	75 0e                	jne    c0102306 <k_mem_paging_set_pd+0x20>
c01022f8:	ff 75 08             	push   0x8(%ebp)
c01022fb:	e8 3d ff ff ff       	call   c010223d <k_mem_paging_virt2phys>
c0102300:	83 c4 04             	add    $0x4,%esp
c0102303:	89 45 08             	mov    %eax,0x8(%ebp)
c0102306:	8b 45 08             	mov    0x8(%ebp),%eax
c0102309:	0f 22 d8             	mov    %eax,%cr3
c010230c:	90                   	nop
c010230d:	c9                   	leave
c010230e:	c3                   	ret

c010230f <k_mem_paging_map>:
c010230f:	55                   	push   %ebp
c0102310:	89 e5                	mov    %esp,%ebp
c0102312:	83 ec 38             	sub    $0x38,%esp
c0102315:	8b 45 10             	mov    0x10(%ebp),%eax
c0102318:	88 45 d4             	mov    %al,-0x2c(%ebp)
c010231b:	8b 45 08             	mov    0x8(%ebp),%eax
c010231e:	c1 e8 16             	shr    $0x16,%eax
c0102321:	89 45 f4             	mov    %eax,-0xc(%ebp)
c0102324:	a1 00 a0 10 c0       	mov    0xc010a000,%eax
c0102329:	8b 55 f4             	mov    -0xc(%ebp),%edx
c010232c:	c1 e2 02             	shl    $0x2,%edx
c010232f:	01 d0                	add    %edx,%eax
c0102331:	8b 00                	mov    (%eax),%eax
c0102333:	83 e0 01             	and    $0x1,%eax
c0102336:	85 c0                	test   %eax,%eax
c0102338:	75 50                	jne    c010238a <k_mem_paging_map+0x7b>
c010233a:	83 ec 0c             	sub    $0xc,%esp
c010233d:	6a 01                	push   $0x1
c010233f:	e8 35 03 00 00       	call   c0102679 <k_mem_pmm_alloc_frames>
c0102344:	83 c4 10             	add    $0x10,%esp
c0102347:	89 45 e8             	mov    %eax,-0x18(%ebp)
c010234a:	89 55 ec             	mov    %edx,-0x14(%ebp)
c010234d:	8b 45 e8             	mov    -0x18(%ebp),%eax
c0102350:	8b 55 ec             	mov    -0x14(%ebp),%edx
c0102353:	09 d0                	or     %edx,%eax
c0102355:	85 c0                	test   %eax,%eax
c0102357:	75 12                	jne    c010236b <k_mem_paging_map+0x5c>
c0102359:	83 ec 08             	sub    $0x8,%esp
c010235c:	6a 00                	push   $0x0
c010235e:	68 14 72 10 c0       	push   $0xc0107214
c0102363:	e8 7a f4 ff ff       	call   c01017e2 <k_panic>
c0102368:	83 c4 10             	add    $0x10,%esp
c010236b:	0f b6 55 d4          	movzbl -0x2c(%ebp),%edx
c010236f:	8b 45 e8             	mov    -0x18(%ebp),%eax
c0102372:	89 d1                	mov    %edx,%ecx
c0102374:	09 c1                	or     %eax,%ecx
c0102376:	a1 00 a0 10 c0       	mov    0xc010a000,%eax
c010237b:	8b 55 f4             	mov    -0xc(%ebp),%edx
c010237e:	c1 e2 02             	shl    $0x2,%edx
c0102381:	01 d0                	add    %edx,%eax
c0102383:	83 c9 01             	or     $0x1,%ecx
c0102386:	89 ca                	mov    %ecx,%edx
c0102388:	89 10                	mov    %edx,(%eax)
c010238a:	8b 45 f4             	mov    -0xc(%ebp),%eax
c010238d:	c1 e0 0c             	shl    $0xc,%eax
c0102390:	2d 00 00 40 00       	sub    $0x400000,%eax
c0102395:	89 45 e4             	mov    %eax,-0x1c(%ebp)
c0102398:	8b 45 08             	mov    0x8(%ebp),%eax
c010239b:	c1 e8 0c             	shr    $0xc,%eax
c010239e:	25 ff 03 00 00       	and    $0x3ff,%eax
c01023a3:	89 45 e0             	mov    %eax,-0x20(%ebp)
c01023a6:	83 7d 0c 00          	cmpl   $0x0,0xc(%ebp)
c01023aa:	75 10                	jne    c01023bc <k_mem_paging_map+0xad>
c01023ac:	83 ec 0c             	sub    $0xc,%esp
c01023af:	6a 01                	push   $0x1
c01023b1:	e8 c3 02 00 00       	call   c0102679 <k_mem_pmm_alloc_frames>
c01023b6:	83 c4 10             	add    $0x10,%esp
c01023b9:	89 45 0c             	mov    %eax,0xc(%ebp)
c01023bc:	0f b6 45 d4          	movzbl -0x2c(%ebp),%eax
c01023c0:	0b 45 0c             	or     0xc(%ebp),%eax
c01023c3:	89 c2                	mov    %eax,%edx
c01023c5:	8b 45 e0             	mov    -0x20(%ebp),%eax
c01023c8:	8d 0c 85 00 00 00 00 	lea    0x0(,%eax,4),%ecx
c01023cf:	8b 45 e4             	mov    -0x1c(%ebp),%eax
c01023d2:	01 c8                	add    %ecx,%eax
c01023d4:	83 ca 01             	or     $0x1,%edx
c01023d7:	89 10                	mov    %edx,(%eax)
c01023d9:	90                   	nop
c01023da:	c9                   	leave
c01023db:	c3                   	ret

c01023dc <k_mem_paging_map_region>:
c01023dc:	55                   	push   %ebp
c01023dd:	89 e5                	mov    %esp,%ebp
c01023df:	53                   	push   %ebx
c01023e0:	83 ec 24             	sub    $0x24,%esp
c01023e3:	8b 55 14             	mov    0x14(%ebp),%edx
c01023e6:	8b 45 18             	mov    0x18(%ebp),%eax
c01023e9:	88 55 e4             	mov    %dl,-0x1c(%ebp)
c01023ec:	88 45 e0             	mov    %al,-0x20(%ebp)
c01023ef:	80 7d e0 00          	cmpb   $0x0,-0x20(%ebp)
c01023f3:	74 5f                	je     c0102454 <k_mem_paging_map_region+0x78>
c01023f5:	83 7d 0c 00          	cmpl   $0x0,0xc(%ebp)
c01023f9:	75 10                	jne    c010240b <k_mem_paging_map_region+0x2f>
c01023fb:	83 ec 0c             	sub    $0xc,%esp
c01023fe:	ff 75 10             	push   0x10(%ebp)
c0102401:	e8 73 02 00 00       	call   c0102679 <k_mem_pmm_alloc_frames>
c0102406:	83 c4 10             	add    $0x10,%esp
c0102409:	eb 03                	jmp    c010240e <k_mem_paging_map_region+0x32>
c010240b:	8b 45 0c             	mov    0xc(%ebp),%eax
c010240e:	89 45 ec             	mov    %eax,-0x14(%ebp)
c0102411:	c7 45 f4 00 00 00 00 	movl   $0x0,-0xc(%ebp)
c0102418:	eb 30                	jmp    c010244a <k_mem_paging_map_region+0x6e>
c010241a:	0f b6 45 e4          	movzbl -0x1c(%ebp),%eax
c010241e:	8b 55 f4             	mov    -0xc(%ebp),%edx
c0102421:	89 d1                	mov    %edx,%ecx
c0102423:	c1 e1 0c             	shl    $0xc,%ecx
c0102426:	8b 55 ec             	mov    -0x14(%ebp),%edx
c0102429:	01 d1                	add    %edx,%ecx
c010242b:	8b 55 f4             	mov    -0xc(%ebp),%edx
c010242e:	89 d3                	mov    %edx,%ebx
c0102430:	c1 e3 0c             	shl    $0xc,%ebx
c0102433:	8b 55 08             	mov    0x8(%ebp),%edx
c0102436:	01 da                	add    %ebx,%edx
c0102438:	83 ec 04             	sub    $0x4,%esp
c010243b:	50                   	push   %eax
c010243c:	51                   	push   %ecx
c010243d:	52                   	push   %edx
c010243e:	e8 cc fe ff ff       	call   c010230f <k_mem_paging_map>
c0102443:	83 c4 10             	add    $0x10,%esp
c0102446:	83 45 f4 01          	addl   $0x1,-0xc(%ebp)
c010244a:	8b 45 f4             	mov    -0xc(%ebp),%eax
c010244d:	3b 45 10             	cmp    0x10(%ebp),%eax
c0102450:	72 c8                	jb     c010241a <k_mem_paging_map_region+0x3e>
c0102452:	eb 56                	jmp    c01024aa <k_mem_paging_map_region+0xce>
c0102454:	c7 45 f0 00 00 00 00 	movl   $0x0,-0x10(%ebp)
c010245b:	eb 45                	jmp    c01024a2 <k_mem_paging_map_region+0xc6>
c010245d:	0f b6 5d e4          	movzbl -0x1c(%ebp),%ebx
c0102461:	83 7d 0c 00          	cmpl   $0x0,0xc(%ebp)
c0102465:	74 0f                	je     c0102476 <k_mem_paging_map_region+0x9a>
c0102467:	8b 45 f0             	mov    -0x10(%ebp),%eax
c010246a:	c1 e0 0c             	shl    $0xc,%eax
c010246d:	89 c2                	mov    %eax,%edx
c010246f:	8b 45 0c             	mov    0xc(%ebp),%eax
c0102472:	01 d0                	add    %edx,%eax
c0102474:	eb 0d                	jmp    c0102483 <k_mem_paging_map_region+0xa7>
c0102476:	83 ec 0c             	sub    $0xc,%esp
c0102479:	6a 01                	push   $0x1
c010247b:	e8 f9 01 00 00       	call   c0102679 <k_mem_pmm_alloc_frames>
c0102480:	83 c4 10             	add    $0x10,%esp
c0102483:	8b 55 f0             	mov    -0x10(%ebp),%edx
c0102486:	89 d1                	mov    %edx,%ecx
c0102488:	c1 e1 0c             	shl    $0xc,%ecx
c010248b:	8b 55 08             	mov    0x8(%ebp),%edx
c010248e:	01 ca                	add    %ecx,%edx
c0102490:	83 ec 04             	sub    $0x4,%esp
c0102493:	53                   	push   %ebx
c0102494:	50                   	push   %eax
c0102495:	52                   	push   %edx
c0102496:	e8 74 fe ff ff       	call   c010230f <k_mem_paging_map>
c010249b:	83 c4 10             	add    $0x10,%esp
c010249e:	83 45 f0 01          	addl   $0x1,-0x10(%ebp)
c01024a2:	8b 45 f0             	mov    -0x10(%ebp),%eax
c01024a5:	3b 45 10             	cmp    0x10(%ebp),%eax
c01024a8:	72 b3                	jb     c010245d <k_mem_paging_map_region+0x81>
c01024aa:	90                   	nop
c01024ab:	8b 5d fc             	mov    -0x4(%ebp),%ebx
c01024ae:	c9                   	leave
c01024af:	c3                   	ret

c01024b0 <k_mem_paging_clone_pd>:
c01024b0:	55                   	push   %ebp
c01024b1:	89 e5                	mov    %esp,%ebp
c01024b3:	83 ec 18             	sub    $0x18,%esp
c01024b6:	8b 45 08             	mov    0x8(%ebp),%eax
c01024b9:	89 45 f4             	mov    %eax,-0xc(%ebp)
c01024bc:	83 ec 08             	sub    $0x8,%esp
c01024bf:	68 00 10 00 00       	push   $0x1000
c01024c4:	68 00 10 00 00       	push   $0x1000
c01024c9:	e8 bd 09 00 00       	call   c0102e8b <k_mem_heap_valloc>
c01024ce:	83 c4 10             	add    $0x10,%esp
c01024d1:	89 45 f0             	mov    %eax,-0x10(%ebp)
c01024d4:	83 ec 04             	sub    $0x4,%esp
c01024d7:	68 00 10 00 00       	push   $0x1000
c01024dc:	ff 75 f4             	push   -0xc(%ebp)
c01024df:	ff 75 f0             	push   -0x10(%ebp)
c01024e2:	e8 73 44 00 00       	call   c010695a <memcpy>
c01024e7:	83 c4 10             	add    $0x10,%esp
c01024ea:	8b 45 f0             	mov    -0x10(%ebp),%eax
c01024ed:	c9                   	leave
c01024ee:	c3                   	ret

c01024ef <k_mem_pmm_init>:
c01024ef:	55                   	push   %ebp
c01024f0:	89 e5                	mov    %esp,%ebp
c01024f2:	56                   	push   %esi
c01024f3:	53                   	push   %ebx
c01024f4:	83 ec 20             	sub    $0x20,%esp
c01024f7:	b8 68 bd 10 c0       	mov    $0xc010bd68,%eax
c01024fc:	05 00 10 00 00       	add    $0x1000,%eax
c0102501:	25 00 f0 ff ff       	and    $0xfffff000,%eax
c0102506:	05 00 00 04 00       	add    $0x40000,%eax
c010250b:	a3 c8 b0 10 c0       	mov    %eax,0xc010b0c8
c0102510:	a1 c8 b0 10 c0       	mov    0xc010b0c8,%eax
c0102515:	83 ec 08             	sub    $0x8,%esp
c0102518:	50                   	push   %eax
c0102519:	68 44 72 10 c0       	push   $0xc0107244
c010251e:	e8 af f4 ff ff       	call   c01019d2 <k_debug>
c0102523:	83 c4 10             	add    $0x10,%esp
c0102526:	83 ec 0c             	sub    $0xc,%esp
c0102529:	68 59 72 10 c0       	push   $0xc0107259
c010252e:	e8 2d f4 ff ff       	call   c0101960 <k_info>
c0102533:	83 c4 10             	add    $0x10,%esp
c0102536:	c7 45 f4 00 00 00 00 	movl   $0x0,-0xc(%ebp)
c010253d:	e9 00 01 00 00       	jmp    c0102642 <k_mem_pmm_init+0x153>
c0102542:	8b 45 08             	mov    0x8(%ebp),%eax
c0102545:	8b 50 30             	mov    0x30(%eax),%edx
c0102548:	8b 45 f4             	mov    -0xc(%ebp),%eax
c010254b:	01 d0                	add    %edx,%eax
c010254d:	2d 00 00 00 40       	sub    $0x40000000,%eax
c0102552:	89 45 ec             	mov    %eax,-0x14(%ebp)
c0102555:	8b 45 ec             	mov    -0x14(%ebp),%eax
c0102558:	8b 40 14             	mov    0x14(%eax),%eax
c010255b:	83 f8 01             	cmp    $0x1,%eax
c010255e:	74 3f                	je     c010259f <k_mem_pmm_init+0xb0>
c0102560:	8b 45 ec             	mov    -0x14(%ebp),%eax
c0102563:	8b 70 14             	mov    0x14(%eax),%esi
c0102566:	8b 45 ec             	mov    -0x14(%ebp),%eax
c0102569:	8b 48 04             	mov    0x4(%eax),%ecx
c010256c:	8b 58 08             	mov    0x8(%eax),%ebx
c010256f:	8b 45 ec             	mov    -0x14(%ebp),%eax
c0102572:	8b 50 10             	mov    0x10(%eax),%edx
c0102575:	8b 40 0c             	mov    0xc(%eax),%eax
c0102578:	01 c1                	add    %eax,%ecx
c010257a:	11 d3                	adc    %edx,%ebx
c010257c:	8b 45 ec             	mov    -0x14(%ebp),%eax
c010257f:	8b 50 08             	mov    0x8(%eax),%edx
c0102582:	8b 40 04             	mov    0x4(%eax),%eax
c0102585:	83 ec 08             	sub    $0x8,%esp
c0102588:	56                   	push   %esi
c0102589:	53                   	push   %ebx
c010258a:	51                   	push   %ecx
c010258b:	52                   	push   %edx
c010258c:	50                   	push   %eax
c010258d:	68 68 72 10 c0       	push   $0xc0107268
c0102592:	e8 c9 f3 ff ff       	call   c0101960 <k_info>
c0102597:	83 c4 20             	add    $0x20,%esp
c010259a:	e9 9f 00 00 00       	jmp    c010263e <k_mem_pmm_init+0x14f>
c010259f:	8b 45 ec             	mov    -0x14(%ebp),%eax
c01025a2:	8b 70 14             	mov    0x14(%eax),%esi
c01025a5:	8b 45 ec             	mov    -0x14(%ebp),%eax
c01025a8:	8b 48 04             	mov    0x4(%eax),%ecx
c01025ab:	8b 58 08             	mov    0x8(%eax),%ebx
c01025ae:	8b 45 ec             	mov    -0x14(%ebp),%eax
c01025b1:	8b 50 10             	mov    0x10(%eax),%edx
c01025b4:	8b 40 0c             	mov    0xc(%eax),%eax
c01025b7:	01 c1                	add    %eax,%ecx
c01025b9:	11 d3                	adc    %edx,%ebx
c01025bb:	8b 45 ec             	mov    -0x14(%ebp),%eax
c01025be:	8b 50 08             	mov    0x8(%eax),%edx
c01025c1:	8b 40 04             	mov    0x4(%eax),%eax
c01025c4:	83 ec 08             	sub    $0x8,%esp
c01025c7:	56                   	push   %esi
c01025c8:	53                   	push   %ebx
c01025c9:	51                   	push   %ecx
c01025ca:	52                   	push   %edx
c01025cb:	50                   	push   %eax
c01025cc:	68 8c 72 10 c0       	push   $0xc010728c
c01025d1:	e8 8a f3 ff ff       	call   c0101960 <k_info>
c01025d6:	83 c4 20             	add    $0x20,%esp
c01025d9:	c7 45 f0 00 00 00 00 	movl   $0x0,-0x10(%ebp)
c01025e0:	eb 45                	jmp    c0102627 <k_mem_pmm_init+0x138>
c01025e2:	8b 45 ec             	mov    -0x14(%ebp),%eax
c01025e5:	8b 50 08             	mov    0x8(%eax),%edx
c01025e8:	8b 40 04             	mov    0x4(%eax),%eax
c01025eb:	8b 4d f0             	mov    -0x10(%ebp),%ecx
c01025ee:	bb 00 00 00 00       	mov    $0x0,%ebx
c01025f3:	01 c8                	add    %ecx,%eax
c01025f5:	11 da                	adc    %ebx,%edx
c01025f7:	89 45 e0             	mov    %eax,-0x20(%ebp)
c01025fa:	89 55 e4             	mov    %edx,-0x1c(%ebp)
c01025fd:	ba 00 00 60 00       	mov    $0x600000,%edx
c0102602:	b8 00 00 00 00       	mov    $0x0,%eax
c0102607:	3b 55 e0             	cmp    -0x20(%ebp),%edx
c010260a:	1b 45 e4             	sbb    -0x1c(%ebp),%eax
c010260d:	73 11                	jae    c0102620 <k_mem_pmm_init+0x131>
c010260f:	83 ec 08             	sub    $0x8,%esp
c0102612:	ff 75 e4             	push   -0x1c(%ebp)
c0102615:	ff 75 e0             	push   -0x20(%ebp)
c0102618:	e8 31 03 00 00       	call   c010294e <k_mem_pmm_mark_frame>
c010261d:	83 c4 10             	add    $0x10,%esp
c0102620:	81 45 f0 00 10 00 00 	addl   $0x1000,-0x10(%ebp)
c0102627:	8b 4d f0             	mov    -0x10(%ebp),%ecx
c010262a:	bb 00 00 00 00       	mov    $0x0,%ebx
c010262f:	8b 45 ec             	mov    -0x14(%ebp),%eax
c0102632:	8b 50 10             	mov    0x10(%eax),%edx
c0102635:	8b 40 0c             	mov    0xc(%eax),%eax
c0102638:	39 c1                	cmp    %eax,%ecx
c010263a:	19 d3                	sbb    %edx,%ebx
c010263c:	72 a4                	jb     c01025e2 <k_mem_pmm_init+0xf3>
c010263e:	83 45 f4 18          	addl   $0x18,-0xc(%ebp)
c0102642:	8b 45 08             	mov    0x8(%ebp),%eax
c0102645:	8b 40 2c             	mov    0x2c(%eax),%eax
c0102648:	39 45 f4             	cmp    %eax,-0xc(%ebp)
c010264b:	0f 82 f1 fe ff ff    	jb     c0102542 <k_mem_pmm_init+0x53>
c0102651:	c6 05 d0 b0 10 c0 01 	movb   $0x1,0xc010b0d0
c0102658:	e8 19 03 00 00       	call   c0102976 <k_mem_pmm_bitmap_size>
c010265d:	c1 e0 02             	shl    $0x2,%eax
c0102660:	83 ec 08             	sub    $0x8,%esp
c0102663:	50                   	push   %eax
c0102664:	68 b9 72 10 c0       	push   $0xc01072b9
c0102669:	e8 64 f3 ff ff       	call   c01019d2 <k_debug>
c010266e:	83 c4 10             	add    $0x10,%esp
c0102671:	90                   	nop
c0102672:	8d 65 f8             	lea    -0x8(%ebp),%esp
c0102675:	5b                   	pop    %ebx
c0102676:	5e                   	pop    %esi
c0102677:	5d                   	pop    %ebp
c0102678:	c3                   	ret

c0102679 <k_mem_pmm_alloc_frames>:
c0102679:	55                   	push   %ebp
c010267a:	89 e5                	mov    %esp,%ebp
c010267c:	53                   	push   %ebx
c010267d:	83 ec 24             	sub    $0x24,%esp
c0102680:	8b 15 04 a0 10 c0    	mov    0xc010a004,%edx
c0102686:	a1 cc b0 10 c0       	mov    0xc010b0cc,%eax
c010268b:	39 c2                	cmp    %eax,%edx
c010268d:	72 0f                	jb     c010269e <k_mem_pmm_alloc_frames+0x25>
c010268f:	b8 00 00 00 00       	mov    $0x0,%eax
c0102694:	ba 00 00 00 00       	mov    $0x0,%edx
c0102699:	e9 50 01 00 00       	jmp    c01027ee <k_mem_pmm_alloc_frames+0x175>
c010269e:	c7 45 f4 00 00 00 00 	movl   $0x0,-0xc(%ebp)
c01026a5:	c7 45 f0 00 00 00 00 	movl   $0x0,-0x10(%ebp)
c01026ac:	c6 45 ef 00          	movb   $0x0,-0x11(%ebp)
c01026b0:	a1 04 a0 10 c0       	mov    0xc010a004,%eax
c01026b5:	89 45 e8             	mov    %eax,-0x18(%ebp)
c01026b8:	eb 74                	jmp    c010272e <k_mem_pmm_alloc_frames+0xb5>
c01026ba:	c7 45 e4 00 00 00 00 	movl   $0x0,-0x1c(%ebp)
c01026c1:	eb 5b                	jmp    c010271e <k_mem_pmm_alloc_frames+0xa5>
c01026c3:	a1 c8 b0 10 c0       	mov    0xc010b0c8,%eax
c01026c8:	8b 55 e8             	mov    -0x18(%ebp),%edx
c01026cb:	c1 e2 02             	shl    $0x2,%edx
c01026ce:	01 d0                	add    %edx,%eax
c01026d0:	8b 10                	mov    (%eax),%edx
c01026d2:	8b 45 e4             	mov    -0x1c(%ebp),%eax
c01026d5:	bb 01 00 00 00       	mov    $0x1,%ebx
c01026da:	89 c1                	mov    %eax,%ecx
c01026dc:	d3 e3                	shl    %cl,%ebx
c01026de:	89 d8                	mov    %ebx,%eax
c01026e0:	21 d0                	and    %edx,%eax
c01026e2:	85 c0                	test   %eax,%eax
c01026e4:	74 1f                	je     c0102705 <k_mem_pmm_alloc_frames+0x8c>
c01026e6:	83 7d f4 00          	cmpl   $0x0,-0xc(%ebp)
c01026ea:	75 13                	jne    c01026ff <k_mem_pmm_alloc_frames+0x86>
c01026ec:	8b 45 e8             	mov    -0x18(%ebp),%eax
c01026ef:	c1 e0 05             	shl    $0x5,%eax
c01026f2:	89 c2                	mov    %eax,%edx
c01026f4:	8b 45 e4             	mov    -0x1c(%ebp),%eax
c01026f7:	01 d0                	add    %edx,%eax
c01026f9:	c1 e0 0c             	shl    $0xc,%eax
c01026fc:	89 45 f0             	mov    %eax,-0x10(%ebp)
c01026ff:	83 45 f4 01          	addl   $0x1,-0xc(%ebp)
c0102703:	eb 07                	jmp    c010270c <k_mem_pmm_alloc_frames+0x93>
c0102705:	c7 45 f4 00 00 00 00 	movl   $0x0,-0xc(%ebp)
c010270c:	8b 45 f4             	mov    -0xc(%ebp),%eax
c010270f:	3b 45 08             	cmp    0x8(%ebp),%eax
c0102712:	72 06                	jb     c010271a <k_mem_pmm_alloc_frames+0xa1>
c0102714:	c6 45 ef 01          	movb   $0x1,-0x11(%ebp)
c0102718:	eb 0a                	jmp    c0102724 <k_mem_pmm_alloc_frames+0xab>
c010271a:	83 45 e4 01          	addl   $0x1,-0x1c(%ebp)
c010271e:	83 7d e4 1f          	cmpl   $0x1f,-0x1c(%ebp)
c0102722:	7e 9f                	jle    c01026c3 <k_mem_pmm_alloc_frames+0x4a>
c0102724:	80 7d ef 00          	cmpb   $0x0,-0x11(%ebp)
c0102728:	75 10                	jne    c010273a <k_mem_pmm_alloc_frames+0xc1>
c010272a:	83 45 e8 01          	addl   $0x1,-0x18(%ebp)
c010272e:	a1 cc b0 10 c0       	mov    0xc010b0cc,%eax
c0102733:	39 45 e8             	cmp    %eax,-0x18(%ebp)
c0102736:	72 82                	jb     c01026ba <k_mem_pmm_alloc_frames+0x41>
c0102738:	eb 01                	jmp    c010273b <k_mem_pmm_alloc_frames+0xc2>
c010273a:	90                   	nop
c010273b:	80 7d ef 00          	cmpb   $0x0,-0x11(%ebp)
c010273f:	0f 84 9f 00 00 00    	je     c01027e4 <k_mem_pmm_alloc_frames+0x16b>
c0102745:	c7 45 e0 00 00 00 00 	movl   $0x0,-0x20(%ebp)
c010274c:	eb 50                	jmp    c010279e <k_mem_pmm_alloc_frames+0x125>
c010274e:	8b 45 e0             	mov    -0x20(%ebp),%eax
c0102751:	c1 e0 0c             	shl    $0xc,%eax
c0102754:	89 c2                	mov    %eax,%edx
c0102756:	8b 45 f0             	mov    -0x10(%ebp),%eax
c0102759:	01 d0                	add    %edx,%eax
c010275b:	89 45 dc             	mov    %eax,-0x24(%ebp)
c010275e:	8b 0d c8 b0 10 c0    	mov    0xc010b0c8,%ecx
c0102764:	8b 45 dc             	mov    -0x24(%ebp),%eax
c0102767:	c1 e8 11             	shr    $0x11,%eax
c010276a:	8d 14 85 00 00 00 00 	lea    0x0(,%eax,4),%edx
c0102771:	01 ca                	add    %ecx,%edx
c0102773:	8b 12                	mov    (%edx),%edx
c0102775:	8b 4d dc             	mov    -0x24(%ebp),%ecx
c0102778:	c1 e9 0c             	shr    $0xc,%ecx
c010277b:	83 e1 1f             	and    $0x1f,%ecx
c010277e:	bb 01 00 00 00       	mov    $0x1,%ebx
c0102783:	d3 e3                	shl    %cl,%ebx
c0102785:	89 d9                	mov    %ebx,%ecx
c0102787:	f7 d1                	not    %ecx
c0102789:	89 cb                	mov    %ecx,%ebx
c010278b:	8b 0d c8 b0 10 c0    	mov    0xc010b0c8,%ecx
c0102791:	c1 e0 02             	shl    $0x2,%eax
c0102794:	01 c8                	add    %ecx,%eax
c0102796:	21 da                	and    %ebx,%edx
c0102798:	89 10                	mov    %edx,(%eax)
c010279a:	83 45 e0 01          	addl   $0x1,-0x20(%ebp)
c010279e:	8b 45 e0             	mov    -0x20(%ebp),%eax
c01027a1:	3b 45 08             	cmp    0x8(%ebp),%eax
c01027a4:	72 a8                	jb     c010274e <k_mem_pmm_alloc_frames+0xd5>
c01027a6:	eb 0d                	jmp    c01027b5 <k_mem_pmm_alloc_frames+0x13c>
c01027a8:	a1 04 a0 10 c0       	mov    0xc010a004,%eax
c01027ad:	83 c0 01             	add    $0x1,%eax
c01027b0:	a3 04 a0 10 c0       	mov    %eax,0xc010a004
c01027b5:	8b 15 04 a0 10 c0    	mov    0xc010a004,%edx
c01027bb:	a1 cc b0 10 c0       	mov    0xc010b0cc,%eax
c01027c0:	39 c2                	cmp    %eax,%edx
c01027c2:	73 16                	jae    c01027da <k_mem_pmm_alloc_frames+0x161>
c01027c4:	a1 c8 b0 10 c0       	mov    0xc010b0c8,%eax
c01027c9:	8b 15 04 a0 10 c0    	mov    0xc010a004,%edx
c01027cf:	c1 e2 02             	shl    $0x2,%edx
c01027d2:	01 d0                	add    %edx,%eax
c01027d4:	8b 00                	mov    (%eax),%eax
c01027d6:	85 c0                	test   %eax,%eax
c01027d8:	74 ce                	je     c01027a8 <k_mem_pmm_alloc_frames+0x12f>
c01027da:	8b 45 f0             	mov    -0x10(%ebp),%eax
c01027dd:	ba 00 00 00 00       	mov    $0x0,%edx
c01027e2:	eb 0a                	jmp    c01027ee <k_mem_pmm_alloc_frames+0x175>
c01027e4:	b8 00 00 00 00       	mov    $0x0,%eax
c01027e9:	ba 00 00 00 00       	mov    $0x0,%edx
c01027ee:	8b 5d fc             	mov    -0x4(%ebp),%ebx
c01027f1:	c9                   	leave
c01027f2:	c3                   	ret

c01027f3 <k_mem_pmm_free>:
c01027f3:	55                   	push   %ebp
c01027f4:	89 e5                	mov    %esp,%ebp
c01027f6:	53                   	push   %ebx
c01027f7:	83 ec 1c             	sub    $0x1c,%esp
c01027fa:	8b 45 08             	mov    0x8(%ebp),%eax
c01027fd:	89 45 e0             	mov    %eax,-0x20(%ebp)
c0102800:	8b 45 0c             	mov    0xc(%ebp),%eax
c0102803:	89 45 e4             	mov    %eax,-0x1c(%ebp)
c0102806:	8b 45 e0             	mov    -0x20(%ebp),%eax
c0102809:	8b 55 e4             	mov    -0x1c(%ebp),%edx
c010280c:	89 45 f0             	mov    %eax,-0x10(%ebp)
c010280f:	89 55 f4             	mov    %edx,-0xc(%ebp)
c0102812:	e9 9b 00 00 00       	jmp    c01028b2 <k_mem_pmm_free+0xbf>
c0102817:	8b 45 e0             	mov    -0x20(%ebp),%eax
c010281a:	8b 55 e4             	mov    -0x1c(%ebp),%edx
c010281d:	0f ac d0 11          	shrd   $0x11,%edx,%eax
c0102821:	c1 ea 11             	shr    $0x11,%edx
c0102824:	89 45 ec             	mov    %eax,-0x14(%ebp)
c0102827:	eb 23                	jmp    c010284c <k_mem_pmm_free+0x59>
c0102829:	a1 c8 b0 10 c0       	mov    0xc010b0c8,%eax
c010282e:	8b 15 cc b0 10 c0    	mov    0xc010b0cc,%edx
c0102834:	c1 e2 02             	shl    $0x2,%edx
c0102837:	01 d0                	add    %edx,%eax
c0102839:	c7 00 00 00 00 00    	movl   $0x0,(%eax)
c010283f:	a1 cc b0 10 c0       	mov    0xc010b0cc,%eax
c0102844:	83 c0 01             	add    $0x1,%eax
c0102847:	a3 cc b0 10 c0       	mov    %eax,0xc010b0cc
c010284c:	a1 cc b0 10 c0       	mov    0xc010b0cc,%eax
c0102851:	39 45 ec             	cmp    %eax,-0x14(%ebp)
c0102854:	73 d3                	jae    c0102829 <k_mem_pmm_free+0x36>
c0102856:	a1 c8 b0 10 c0       	mov    0xc010b0c8,%eax
c010285b:	8b 55 ec             	mov    -0x14(%ebp),%edx
c010285e:	c1 e2 02             	shl    $0x2,%edx
c0102861:	01 d0                	add    %edx,%eax
c0102863:	8b 18                	mov    (%eax),%ebx
c0102865:	8b 45 e0             	mov    -0x20(%ebp),%eax
c0102868:	8b 55 e4             	mov    -0x1c(%ebp),%edx
c010286b:	0f ac d0 0c          	shrd   $0xc,%edx,%eax
c010286f:	c1 ea 0c             	shr    $0xc,%edx
c0102872:	83 e0 1f             	and    $0x1f,%eax
c0102875:	ba 01 00 00 00       	mov    $0x1,%edx
c010287a:	89 c1                	mov    %eax,%ecx
c010287c:	d3 e2                	shl    %cl,%edx
c010287e:	89 d0                	mov    %edx,%eax
c0102880:	89 c1                	mov    %eax,%ecx
c0102882:	a1 c8 b0 10 c0       	mov    0xc010b0c8,%eax
c0102887:	8b 55 ec             	mov    -0x14(%ebp),%edx
c010288a:	c1 e2 02             	shl    $0x2,%edx
c010288d:	01 d0                	add    %edx,%eax
c010288f:	09 cb                	or     %ecx,%ebx
c0102891:	89 da                	mov    %ebx,%edx
c0102893:	89 10                	mov    %edx,(%eax)
c0102895:	a1 04 a0 10 c0       	mov    0xc010a004,%eax
c010289a:	39 45 ec             	cmp    %eax,-0x14(%ebp)
c010289d:	73 08                	jae    c01028a7 <k_mem_pmm_free+0xb4>
c010289f:	8b 45 ec             	mov    -0x14(%ebp),%eax
c01028a2:	a3 04 a0 10 c0       	mov    %eax,0xc010a004
c01028a7:	81 45 f0 00 10 00 00 	addl   $0x1000,-0x10(%ebp)
c01028ae:	83 55 f4 00          	adcl   $0x0,-0xc(%ebp)
c01028b2:	8b 45 10             	mov    0x10(%ebp),%eax
c01028b5:	ba 00 00 00 00       	mov    $0x0,%edx
c01028ba:	0f a4 c2 0c          	shld   $0xc,%eax,%edx
c01028be:	c1 e0 0c             	shl    $0xc,%eax
c01028c1:	89 c1                	mov    %eax,%ecx
c01028c3:	89 d3                	mov    %edx,%ebx
c01028c5:	8b 45 e0             	mov    -0x20(%ebp),%eax
c01028c8:	8b 55 e4             	mov    -0x1c(%ebp),%edx
c01028cb:	01 c8                	add    %ecx,%eax
c01028cd:	11 da                	adc    %ebx,%edx
c01028cf:	8b 4d f4             	mov    -0xc(%ebp),%ecx
c01028d2:	39 45 f0             	cmp    %eax,-0x10(%ebp)
c01028d5:	19 d1                	sbb    %edx,%ecx
c01028d7:	0f 82 3a ff ff ff    	jb     c0102817 <k_mem_pmm_free+0x24>
c01028dd:	90                   	nop
c01028de:	90                   	nop
c01028df:	8b 5d fc             	mov    -0x4(%ebp),%ebx
c01028e2:	c9                   	leave
c01028e3:	c3                   	ret

c01028e4 <k_mem_pmm_is_allocated>:
c01028e4:	55                   	push   %ebp
c01028e5:	89 e5                	mov    %esp,%ebp
c01028e7:	53                   	push   %ebx
c01028e8:	83 ec 1c             	sub    $0x1c,%esp
c01028eb:	8b 45 08             	mov    0x8(%ebp),%eax
c01028ee:	89 45 e0             	mov    %eax,-0x20(%ebp)
c01028f1:	8b 45 0c             	mov    0xc(%ebp),%eax
c01028f4:	89 45 e4             	mov    %eax,-0x1c(%ebp)
c01028f7:	8b 45 e0             	mov    -0x20(%ebp),%eax
c01028fa:	8b 55 e4             	mov    -0x1c(%ebp),%edx
c01028fd:	0f ac d0 11          	shrd   $0x11,%edx,%eax
c0102901:	c1 ea 11             	shr    $0x11,%edx
c0102904:	89 45 f4             	mov    %eax,-0xc(%ebp)
c0102907:	a1 cc b0 10 c0       	mov    0xc010b0cc,%eax
c010290c:	39 45 f4             	cmp    %eax,-0xc(%ebp)
c010290f:	72 07                	jb     c0102918 <k_mem_pmm_is_allocated+0x34>
c0102911:	b8 00 00 00 00       	mov    $0x0,%eax
c0102916:	eb 31                	jmp    c0102949 <k_mem_pmm_is_allocated+0x65>
c0102918:	a1 c8 b0 10 c0       	mov    0xc010b0c8,%eax
c010291d:	8b 55 f4             	mov    -0xc(%ebp),%edx
c0102920:	c1 e2 02             	shl    $0x2,%edx
c0102923:	01 d0                	add    %edx,%eax
c0102925:	8b 18                	mov    (%eax),%ebx
c0102927:	8b 45 e0             	mov    -0x20(%ebp),%eax
c010292a:	8b 55 e4             	mov    -0x1c(%ebp),%edx
c010292d:	0f ac d0 0c          	shrd   $0xc,%edx,%eax
c0102931:	c1 ea 0c             	shr    $0xc,%edx
c0102934:	83 e0 1f             	and    $0x1f,%eax
c0102937:	ba 01 00 00 00       	mov    $0x1,%edx
c010293c:	89 c1                	mov    %eax,%ecx
c010293e:	d3 e2                	shl    %cl,%edx
c0102940:	89 d0                	mov    %edx,%eax
c0102942:	21 d8                	and    %ebx,%eax
c0102944:	85 c0                	test   %eax,%eax
c0102946:	0f 94 c0             	sete   %al
c0102949:	8b 5d fc             	mov    -0x4(%ebp),%ebx
c010294c:	c9                   	leave
c010294d:	c3                   	ret

c010294e <k_mem_pmm_mark_frame>:
c010294e:	55                   	push   %ebp
c010294f:	89 e5                	mov    %esp,%ebp
c0102951:	83 ec 08             	sub    $0x8,%esp
c0102954:	8b 45 08             	mov    0x8(%ebp),%eax
c0102957:	89 45 f8             	mov    %eax,-0x8(%ebp)
c010295a:	8b 45 0c             	mov    0xc(%ebp),%eax
c010295d:	89 45 fc             	mov    %eax,-0x4(%ebp)
c0102960:	83 ec 04             	sub    $0x4,%esp
c0102963:	6a 01                	push   $0x1
c0102965:	ff 75 fc             	push   -0x4(%ebp)
c0102968:	ff 75 f8             	push   -0x8(%ebp)
c010296b:	e8 83 fe ff ff       	call   c01027f3 <k_mem_pmm_free>
c0102970:	83 c4 10             	add    $0x10,%esp
c0102973:	90                   	nop
c0102974:	c9                   	leave
c0102975:	c3                   	ret

c0102976 <k_mem_pmm_bitmap_size>:
c0102976:	55                   	push   %ebp
c0102977:	89 e5                	mov    %esp,%ebp
c0102979:	a1 cc b0 10 c0       	mov    0xc010b0cc,%eax
c010297e:	5d                   	pop    %ebp
c010297f:	c3                   	ret

c0102980 <k_mem_pmm_bitmap_end>:
c0102980:	55                   	push   %ebp
c0102981:	89 e5                	mov    %esp,%ebp
c0102983:	e8 ee ff ff ff       	call   c0102976 <k_mem_pmm_bitmap_size>
c0102988:	8d 14 85 00 00 00 00 	lea    0x0(,%eax,4),%edx
c010298f:	a1 c8 b0 10 c0       	mov    0xc010b0c8,%eax
c0102994:	01 d0                	add    %edx,%eax
c0102996:	5d                   	pop    %ebp
c0102997:	c3                   	ret

c0102998 <k_mem_pmm_initialized>:
c0102998:	55                   	push   %ebp
c0102999:	89 e5                	mov    %esp,%ebp
c010299b:	0f b6 05 d0 b0 10 c0 	movzbl 0xc010b0d0,%eax
c01029a2:	5d                   	pop    %ebp
c01029a3:	c3                   	ret

c01029a4 <__k_mem_heap_is_valid_block>:
c01029a4:	55                   	push   %ebp
c01029a5:	89 e5                	mov    %esp,%ebp
c01029a7:	83 ec 10             	sub    $0x10,%esp
c01029aa:	8b 45 08             	mov    0x8(%ebp),%eax
c01029ad:	89 45 fc             	mov    %eax,-0x4(%ebp)
c01029b0:	81 7d fc ff ff ff c0 	cmpl   $0xc0ffffff,-0x4(%ebp)
c01029b7:	76 20                	jbe    c01029d9 <__k_mem_heap_is_valid_block+0x35>
c01029b9:	a1 0c a0 10 c0       	mov    0xc010a00c,%eax
c01029be:	2d 00 00 00 3f       	sub    $0x3f000000,%eax
c01029c3:	39 45 fc             	cmp    %eax,-0x4(%ebp)
c01029c6:	73 11                	jae    c01029d9 <__k_mem_heap_is_valid_block+0x35>
c01029c8:	8b 45 08             	mov    0x8(%ebp),%eax
c01029cb:	8b 40 04             	mov    0x4(%eax),%eax
c01029ce:	85 c0                	test   %eax,%eax
c01029d0:	74 07                	je     c01029d9 <__k_mem_heap_is_valid_block+0x35>
c01029d2:	b8 01 00 00 00       	mov    $0x1,%eax
c01029d7:	eb 05                	jmp    c01029de <__k_mem_heap_is_valid_block+0x3a>
c01029d9:	b8 00 00 00 00       	mov    $0x0,%eax
c01029de:	c9                   	leave
c01029df:	c3                   	ret

c01029e0 <__k_mem_heap_init_block>:
c01029e0:	55                   	push   %ebp
c01029e1:	89 e5                	mov    %esp,%ebp
c01029e3:	83 ec 08             	sub    $0x8,%esp
c01029e6:	83 7d 0c 00          	cmpl   $0x0,0xc(%ebp)
c01029ea:	75 12                	jne    c01029fe <__k_mem_heap_init_block+0x1e>
c01029ec:	83 ec 08             	sub    $0x8,%esp
c01029ef:	6a 00                	push   $0x0
c01029f1:	68 d8 72 10 c0       	push   $0xc01072d8
c01029f6:	e8 e7 ed ff ff       	call   c01017e2 <k_panic>
c01029fb:	83 c4 10             	add    $0x10,%esp
c01029fe:	8b 45 08             	mov    0x8(%ebp),%eax
c0102a01:	c7 00 00 00 00 00    	movl   $0x0,(%eax)
c0102a07:	8b 45 08             	mov    0x8(%ebp),%eax
c0102a0a:	8b 55 0c             	mov    0xc(%ebp),%edx
c0102a0d:	89 50 04             	mov    %edx,0x4(%eax)
c0102a10:	8b 45 08             	mov    0x8(%ebp),%eax
c0102a13:	c6 40 08 01          	movb   $0x1,0x8(%eax)
c0102a17:	90                   	nop
c0102a18:	c9                   	leave
c0102a19:	c3                   	ret

c0102a1a <__k_mem_split_block>:
c0102a1a:	55                   	push   %ebp
c0102a1b:	89 e5                	mov    %esp,%ebp
c0102a1d:	83 ec 18             	sub    $0x18,%esp
c0102a20:	8b 45 08             	mov    0x8(%ebp),%eax
c0102a23:	8b 40 04             	mov    0x4(%eax),%eax
c0102a26:	3b 45 10             	cmp    0x10(%ebp),%eax
c0102a29:	73 07                	jae    c0102a32 <__k_mem_split_block+0x18>
c0102a2b:	b8 01 00 00 00       	mov    $0x1,%eax
c0102a30:	eb 70                	jmp    c0102aa2 <__k_mem_split_block+0x88>
c0102a32:	ff 75 08             	push   0x8(%ebp)
c0102a35:	e8 6a ff ff ff       	call   c01029a4 <__k_mem_heap_is_valid_block>
c0102a3a:	83 c4 04             	add    $0x4,%esp
c0102a3d:	84 c0                	test   %al,%al
c0102a3f:	75 07                	jne    c0102a48 <__k_mem_split_block+0x2e>
c0102a41:	b8 01 00 00 00       	mov    $0x1,%eax
c0102a46:	eb 5a                	jmp    c0102aa2 <__k_mem_split_block+0x88>
c0102a48:	8b 45 08             	mov    0x8(%ebp),%eax
c0102a4b:	8b 40 04             	mov    0x4(%eax),%eax
c0102a4e:	2b 45 10             	sub    0x10(%ebp),%eax
c0102a51:	89 45 f4             	mov    %eax,-0xc(%ebp)
c0102a54:	8b 55 08             	mov    0x8(%ebp),%edx
c0102a57:	8b 45 10             	mov    0x10(%ebp),%eax
c0102a5a:	01 d0                	add    %edx,%eax
c0102a5c:	83 c0 09             	add    $0x9,%eax
c0102a5f:	89 c2                	mov    %eax,%edx
c0102a61:	8b 45 0c             	mov    0xc(%ebp),%eax
c0102a64:	89 10                	mov    %edx,(%eax)
c0102a66:	8b 45 f4             	mov    -0xc(%ebp),%eax
c0102a69:	8d 50 f7             	lea    -0x9(%eax),%edx
c0102a6c:	8b 45 0c             	mov    0xc(%ebp),%eax
c0102a6f:	8b 00                	mov    (%eax),%eax
c0102a71:	83 ec 08             	sub    $0x8,%esp
c0102a74:	52                   	push   %edx
c0102a75:	50                   	push   %eax
c0102a76:	e8 65 ff ff ff       	call   c01029e0 <__k_mem_heap_init_block>
c0102a7b:	83 c4 10             	add    $0x10,%esp
c0102a7e:	8b 45 08             	mov    0x8(%ebp),%eax
c0102a81:	8b 55 10             	mov    0x10(%ebp),%edx
c0102a84:	89 50 04             	mov    %edx,0x4(%eax)
c0102a87:	8b 45 0c             	mov    0xc(%ebp),%eax
c0102a8a:	8b 00                	mov    (%eax),%eax
c0102a8c:	8b 55 08             	mov    0x8(%ebp),%edx
c0102a8f:	8b 12                	mov    (%edx),%edx
c0102a91:	89 10                	mov    %edx,(%eax)
c0102a93:	8b 45 0c             	mov    0xc(%ebp),%eax
c0102a96:	8b 10                	mov    (%eax),%edx
c0102a98:	8b 45 08             	mov    0x8(%ebp),%eax
c0102a9b:	89 10                	mov    %edx,(%eax)
c0102a9d:	b8 00 00 00 00       	mov    $0x0,%eax
c0102aa2:	c9                   	leave
c0102aa3:	c3                   	ret

c0102aa4 <__k_mem_merge>:
c0102aa4:	55                   	push   %ebp
c0102aa5:	89 e5                	mov    %esp,%ebp
c0102aa7:	83 ec 10             	sub    $0x10,%esp
c0102aaa:	a1 08 a0 10 c0       	mov    0xc010a008,%eax
c0102aaf:	89 45 fc             	mov    %eax,-0x4(%ebp)
c0102ab2:	eb 63                	jmp    c0102b17 <__k_mem_merge+0x73>
c0102ab4:	8b 45 fc             	mov    -0x4(%ebp),%eax
c0102ab7:	0f b6 40 08          	movzbl 0x8(%eax),%eax
c0102abb:	0f b6 c0             	movzbl %al,%eax
c0102abe:	83 e0 01             	and    $0x1,%eax
c0102ac1:	85 c0                	test   %eax,%eax
c0102ac3:	74 4a                	je     c0102b0f <__k_mem_merge+0x6b>
c0102ac5:	8b 45 fc             	mov    -0x4(%ebp),%eax
c0102ac8:	8b 00                	mov    (%eax),%eax
c0102aca:	50                   	push   %eax
c0102acb:	e8 d4 fe ff ff       	call   c01029a4 <__k_mem_heap_is_valid_block>
c0102ad0:	83 c4 04             	add    $0x4,%esp
c0102ad3:	84 c0                	test   %al,%al
c0102ad5:	74 38                	je     c0102b0f <__k_mem_merge+0x6b>
c0102ad7:	8b 45 fc             	mov    -0x4(%ebp),%eax
c0102ada:	8b 00                	mov    (%eax),%eax
c0102adc:	0f b6 40 08          	movzbl 0x8(%eax),%eax
c0102ae0:	0f b6 c0             	movzbl %al,%eax
c0102ae3:	83 e0 01             	and    $0x1,%eax
c0102ae6:	85 c0                	test   %eax,%eax
c0102ae8:	74 25                	je     c0102b0f <__k_mem_merge+0x6b>
c0102aea:	8b 45 fc             	mov    -0x4(%ebp),%eax
c0102aed:	8b 50 04             	mov    0x4(%eax),%edx
c0102af0:	8b 45 fc             	mov    -0x4(%ebp),%eax
c0102af3:	8b 00                	mov    (%eax),%eax
c0102af5:	8b 40 04             	mov    0x4(%eax),%eax
c0102af8:	01 d0                	add    %edx,%eax
c0102afa:	8d 50 09             	lea    0x9(%eax),%edx
c0102afd:	8b 45 fc             	mov    -0x4(%ebp),%eax
c0102b00:	89 50 04             	mov    %edx,0x4(%eax)
c0102b03:	8b 45 fc             	mov    -0x4(%ebp),%eax
c0102b06:	8b 00                	mov    (%eax),%eax
c0102b08:	8b 10                	mov    (%eax),%edx
c0102b0a:	8b 45 fc             	mov    -0x4(%ebp),%eax
c0102b0d:	89 10                	mov    %edx,(%eax)
c0102b0f:	8b 45 fc             	mov    -0x4(%ebp),%eax
c0102b12:	8b 00                	mov    (%eax),%eax
c0102b14:	89 45 fc             	mov    %eax,-0x4(%ebp)
c0102b17:	ff 75 fc             	push   -0x4(%ebp)
c0102b1a:	e8 85 fe ff ff       	call   c01029a4 <__k_mem_heap_is_valid_block>
c0102b1f:	83 c4 04             	add    $0x4,%esp
c0102b22:	84 c0                	test   %al,%al
c0102b24:	75 8e                	jne    c0102ab4 <__k_mem_merge+0x10>
c0102b26:	90                   	nop
c0102b27:	90                   	nop
c0102b28:	c9                   	leave
c0102b29:	c3                   	ret

c0102b2a <__k_d_mem_heap_print_block>:
c0102b2a:	55                   	push   %ebp
c0102b2b:	89 e5                	mov    %esp,%ebp
c0102b2d:	83 ec 08             	sub    $0x8,%esp
c0102b30:	8b 45 08             	mov    0x8(%ebp),%eax
c0102b33:	0f b6 40 08          	movzbl 0x8(%eax),%eax
c0102b37:	0f b6 c8             	movzbl %al,%ecx
c0102b3a:	8b 45 08             	mov    0x8(%ebp),%eax
c0102b3d:	8b 50 04             	mov    0x4(%eax),%edx
c0102b40:	8b 45 08             	mov    0x8(%ebp),%eax
c0102b43:	8b 00                	mov    (%eax),%eax
c0102b45:	83 ec 0c             	sub    $0xc,%esp
c0102b48:	51                   	push   %ecx
c0102b49:	52                   	push   %edx
c0102b4a:	50                   	push   %eax
c0102b4b:	ff 75 08             	push   0x8(%ebp)
c0102b4e:	68 0e 73 10 c0       	push   $0xc010730e
c0102b53:	e8 7a ee ff ff       	call   c01019d2 <k_debug>
c0102b58:	83 c4 20             	add    $0x20,%esp
c0102b5b:	90                   	nop
c0102b5c:	c9                   	leave
c0102b5d:	c3                   	ret

c0102b5e <k_d_mem_heap_print>:
c0102b5e:	55                   	push   %ebp
c0102b5f:	89 e5                	mov    %esp,%ebp
c0102b61:	83 ec 18             	sub    $0x18,%esp
c0102b64:	a1 08 a0 10 c0       	mov    0xc010a008,%eax
c0102b69:	89 45 f4             	mov    %eax,-0xc(%ebp)
c0102b6c:	eb 16                	jmp    c0102b84 <k_d_mem_heap_print+0x26>
c0102b6e:	83 ec 0c             	sub    $0xc,%esp
c0102b71:	ff 75 f4             	push   -0xc(%ebp)
c0102b74:	e8 b1 ff ff ff       	call   c0102b2a <__k_d_mem_heap_print_block>
c0102b79:	83 c4 10             	add    $0x10,%esp
c0102b7c:	8b 45 f4             	mov    -0xc(%ebp),%eax
c0102b7f:	8b 00                	mov    (%eax),%eax
c0102b81:	89 45 f4             	mov    %eax,-0xc(%ebp)
c0102b84:	83 ec 0c             	sub    $0xc,%esp
c0102b87:	ff 75 f4             	push   -0xc(%ebp)
c0102b8a:	e8 15 fe ff ff       	call   c01029a4 <__k_mem_heap_is_valid_block>
c0102b8f:	83 c4 10             	add    $0x10,%esp
c0102b92:	84 c0                	test   %al,%al
c0102b94:	75 d8                	jne    c0102b6e <k_d_mem_heap_print+0x10>
c0102b96:	90                   	nop
c0102b97:	90                   	nop
c0102b98:	c9                   	leave
c0102b99:	c3                   	ret

c0102b9a <k_mem_heap_init>:
c0102b9a:	55                   	push   %ebp
c0102b9b:	89 e5                	mov    %esp,%ebp
c0102b9d:	83 ec 08             	sub    $0x8,%esp
c0102ba0:	83 ec 0c             	sub    $0xc,%esp
c0102ba3:	6a 00                	push   $0x0
c0102ba5:	6a 03                	push   $0x3
c0102ba7:	68 00 01 00 00       	push   $0x100
c0102bac:	6a 00                	push   $0x0
c0102bae:	68 00 00 00 c1       	push   $0xc1000000
c0102bb3:	e8 24 f8 ff ff       	call   c01023dc <k_mem_paging_map_region>
c0102bb8:	83 c4 20             	add    $0x20,%esp
c0102bbb:	a1 08 a0 10 c0       	mov    0xc010a008,%eax
c0102bc0:	83 ec 08             	sub    $0x8,%esp
c0102bc3:	68 f7 ff 0f 00       	push   $0xffff7
c0102bc8:	50                   	push   %eax
c0102bc9:	e8 12 fe ff ff       	call   c01029e0 <__k_mem_heap_init_block>
c0102bce:	83 c4 10             	add    $0x10,%esp
c0102bd1:	b8 00 00 00 00       	mov    $0x0,%eax
c0102bd6:	c9                   	leave
c0102bd7:	c3                   	ret

c0102bd8 <__k_mem_heap_increase>:
c0102bd8:	55                   	push   %ebp
c0102bd9:	89 e5                	mov    %esp,%ebp
c0102bdb:	83 ec 18             	sub    $0x18,%esp
c0102bde:	8b 15 0c a0 10 c0    	mov    0xc010a00c,%edx
c0102be4:	8b 45 08             	mov    0x8(%ebp),%eax
c0102be7:	01 d0                	add    %edx,%eax
c0102be9:	2d 00 00 00 3f       	sub    $0x3f000000,%eax
c0102bee:	3d 00 f0 ff cf       	cmp    $0xcffff000,%eax
c0102bf3:	76 12                	jbe    c0102c07 <__k_mem_heap_increase+0x2f>
c0102bf5:	83 ec 08             	sub    $0x8,%esp
c0102bf8:	6a 00                	push   $0x0
c0102bfa:	68 28 73 10 c0       	push   $0xc0107328
c0102bff:	e8 de eb ff ff       	call   c01017e2 <k_panic>
c0102c04:	83 c4 10             	add    $0x10,%esp
c0102c07:	8b 45 08             	mov    0x8(%ebp),%eax
c0102c0a:	c1 e8 0c             	shr    $0xc,%eax
c0102c0d:	8d 50 01             	lea    0x1(%eax),%edx
c0102c10:	a1 08 a0 10 c0       	mov    0xc010a008,%eax
c0102c15:	89 c1                	mov    %eax,%ecx
c0102c17:	a1 0c a0 10 c0       	mov    0xc010a00c,%eax
c0102c1c:	01 c8                	add    %ecx,%eax
c0102c1e:	83 ec 0c             	sub    $0xc,%esp
c0102c21:	6a 00                	push   $0x0
c0102c23:	6a 03                	push   $0x3
c0102c25:	52                   	push   %edx
c0102c26:	6a 00                	push   $0x0
c0102c28:	50                   	push   %eax
c0102c29:	e8 ae f7 ff ff       	call   c01023dc <k_mem_paging_map_region>
c0102c2e:	83 c4 20             	add    $0x20,%esp
c0102c31:	a1 08 a0 10 c0       	mov    0xc010a008,%eax
c0102c36:	89 c2                	mov    %eax,%edx
c0102c38:	a1 0c a0 10 c0       	mov    0xc010a00c,%eax
c0102c3d:	01 d0                	add    %edx,%eax
c0102c3f:	89 45 f4             	mov    %eax,-0xc(%ebp)
c0102c42:	8b 45 08             	mov    0x8(%ebp),%eax
c0102c45:	83 e8 09             	sub    $0x9,%eax
c0102c48:	83 ec 08             	sub    $0x8,%esp
c0102c4b:	50                   	push   %eax
c0102c4c:	ff 75 f4             	push   -0xc(%ebp)
c0102c4f:	e8 8c fd ff ff       	call   c01029e0 <__k_mem_heap_init_block>
c0102c54:	83 c4 10             	add    $0x10,%esp
c0102c57:	a1 0c a0 10 c0       	mov    0xc010a00c,%eax
c0102c5c:	05 00 10 00 00       	add    $0x1000,%eax
c0102c61:	a3 0c a0 10 c0       	mov    %eax,0xc010a00c
c0102c66:	8b 45 f4             	mov    -0xc(%ebp),%eax
c0102c69:	c9                   	leave
c0102c6a:	c3                   	ret

c0102c6b <k_mem_heap_alloc>:
c0102c6b:	55                   	push   %ebp
c0102c6c:	89 e5                	mov    %esp,%ebp
c0102c6e:	83 ec 18             	sub    $0x18,%esp
c0102c71:	e8 2e fe ff ff       	call   c0102aa4 <__k_mem_merge>
c0102c76:	a1 08 a0 10 c0       	mov    0xc010a008,%eax
c0102c7b:	89 45 f4             	mov    %eax,-0xc(%ebp)
c0102c7e:	8b 45 f4             	mov    -0xc(%ebp),%eax
c0102c81:	89 45 f0             	mov    %eax,-0x10(%ebp)
c0102c84:	eb 20                	jmp    c0102ca6 <k_mem_heap_alloc+0x3b>
c0102c86:	8b 45 f4             	mov    -0xc(%ebp),%eax
c0102c89:	8b 00                	mov    (%eax),%eax
c0102c8b:	50                   	push   %eax
c0102c8c:	e8 13 fd ff ff       	call   c01029a4 <__k_mem_heap_is_valid_block>
c0102c91:	83 c4 04             	add    $0x4,%esp
c0102c94:	84 c0                	test   %al,%al
c0102c96:	75 06                	jne    c0102c9e <k_mem_heap_alloc+0x33>
c0102c98:	8b 45 f4             	mov    -0xc(%ebp),%eax
c0102c9b:	89 45 f0             	mov    %eax,-0x10(%ebp)
c0102c9e:	8b 45 f4             	mov    -0xc(%ebp),%eax
c0102ca1:	8b 00                	mov    (%eax),%eax
c0102ca3:	89 45 f4             	mov    %eax,-0xc(%ebp)
c0102ca6:	ff 75 f4             	push   -0xc(%ebp)
c0102ca9:	e8 f6 fc ff ff       	call   c01029a4 <__k_mem_heap_is_valid_block>
c0102cae:	83 c4 04             	add    $0x4,%esp
c0102cb1:	84 c0                	test   %al,%al
c0102cb3:	74 37                	je     c0102cec <k_mem_heap_alloc+0x81>
c0102cb5:	8b 45 f4             	mov    -0xc(%ebp),%eax
c0102cb8:	0f b6 40 08          	movzbl 0x8(%eax),%eax
c0102cbc:	0f b6 c0             	movzbl %al,%eax
c0102cbf:	83 e0 01             	and    $0x1,%eax
c0102cc2:	85 c0                	test   %eax,%eax
c0102cc4:	74 c0                	je     c0102c86 <k_mem_heap_alloc+0x1b>
c0102cc6:	8b 45 f4             	mov    -0xc(%ebp),%eax
c0102cc9:	8b 40 04             	mov    0x4(%eax),%eax
c0102ccc:	3b 45 08             	cmp    0x8(%ebp),%eax
c0102ccf:	72 b5                	jb     c0102c86 <k_mem_heap_alloc+0x1b>
c0102cd1:	8b 45 f4             	mov    -0xc(%ebp),%eax
c0102cd4:	8b 40 04             	mov    0x4(%eax),%eax
c0102cd7:	39 45 08             	cmp    %eax,0x8(%ebp)
c0102cda:	73 10                	jae    c0102cec <k_mem_heap_alloc+0x81>
c0102cdc:	8b 45 f4             	mov    -0xc(%ebp),%eax
c0102cdf:	8b 50 04             	mov    0x4(%eax),%edx
c0102ce2:	8b 45 08             	mov    0x8(%ebp),%eax
c0102ce5:	83 c0 0a             	add    $0xa,%eax
c0102ce8:	39 c2                	cmp    %eax,%edx
c0102cea:	72 9a                	jb     c0102c86 <k_mem_heap_alloc+0x1b>
c0102cec:	ff 75 f4             	push   -0xc(%ebp)
c0102cef:	e8 b0 fc ff ff       	call   c01029a4 <__k_mem_heap_is_valid_block>
c0102cf4:	83 c4 04             	add    $0x4,%esp
c0102cf7:	84 c0                	test   %al,%al
c0102cf9:	75 75                	jne    c0102d70 <k_mem_heap_alloc+0x105>
c0102cfb:	ff 75 f0             	push   -0x10(%ebp)
c0102cfe:	e8 a1 fc ff ff       	call   c01029a4 <__k_mem_heap_is_valid_block>
c0102d03:	83 c4 04             	add    $0x4,%esp
c0102d06:	84 c0                	test   %al,%al
c0102d08:	75 20                	jne    c0102d2a <k_mem_heap_alloc+0xbf>
c0102d0a:	83 ec 0c             	sub    $0xc,%esp
c0102d0d:	ff 75 f0             	push   -0x10(%ebp)
c0102d10:	e8 15 fe ff ff       	call   c0102b2a <__k_d_mem_heap_print_block>
c0102d15:	83 c4 10             	add    $0x10,%esp
c0102d18:	83 ec 08             	sub    $0x8,%esp
c0102d1b:	6a 00                	push   $0x0
c0102d1d:	68 48 73 10 c0       	push   $0xc0107348
c0102d22:	e8 bb ea ff ff       	call   c01017e2 <k_panic>
c0102d27:	83 c4 10             	add    $0x10,%esp
c0102d2a:	8b 45 08             	mov    0x8(%ebp),%eax
c0102d2d:	83 c0 09             	add    $0x9,%eax
c0102d30:	83 ec 0c             	sub    $0xc,%esp
c0102d33:	50                   	push   %eax
c0102d34:	e8 9f fe ff ff       	call   c0102bd8 <__k_mem_heap_increase>
c0102d39:	83 c4 10             	add    $0x10,%esp
c0102d3c:	8b 55 f0             	mov    -0x10(%ebp),%edx
c0102d3f:	89 02                	mov    %eax,(%edx)
c0102d41:	8b 45 f0             	mov    -0x10(%ebp),%eax
c0102d44:	8b 00                	mov    (%eax),%eax
c0102d46:	83 ec 0c             	sub    $0xc,%esp
c0102d49:	50                   	push   %eax
c0102d4a:	e8 55 fc ff ff       	call   c01029a4 <__k_mem_heap_is_valid_block>
c0102d4f:	83 c4 10             	add    $0x10,%esp
c0102d52:	84 c0                	test   %al,%al
c0102d54:	75 12                	jne    c0102d68 <k_mem_heap_alloc+0xfd>
c0102d56:	83 ec 08             	sub    $0x8,%esp
c0102d59:	6a 00                	push   $0x0
c0102d5b:	68 78 73 10 c0       	push   $0xc0107378
c0102d60:	e8 7d ea ff ff       	call   c01017e2 <k_panic>
c0102d65:	83 c4 10             	add    $0x10,%esp
c0102d68:	8b 45 f0             	mov    -0x10(%ebp),%eax
c0102d6b:	8b 00                	mov    (%eax),%eax
c0102d6d:	89 45 f4             	mov    %eax,-0xc(%ebp)
c0102d70:	8b 45 f4             	mov    -0xc(%ebp),%eax
c0102d73:	8b 40 04             	mov    0x4(%eax),%eax
c0102d76:	39 45 08             	cmp    %eax,0x8(%ebp)
c0102d79:	75 1a                	jne    c0102d95 <k_mem_heap_alloc+0x12a>
c0102d7b:	8b 45 f4             	mov    -0xc(%ebp),%eax
c0102d7e:	0f b6 40 08          	movzbl 0x8(%eax),%eax
c0102d82:	83 e0 fe             	and    $0xfffffffe,%eax
c0102d85:	89 c2                	mov    %eax,%edx
c0102d87:	8b 45 f4             	mov    -0xc(%ebp),%eax
c0102d8a:	88 50 08             	mov    %dl,0x8(%eax)
c0102d8d:	8b 45 f4             	mov    -0xc(%ebp),%eax
c0102d90:	83 c0 09             	add    $0x9,%eax
c0102d93:	eb 44                	jmp    c0102dd9 <k_mem_heap_alloc+0x16e>
c0102d95:	83 ec 04             	sub    $0x4,%esp
c0102d98:	ff 75 08             	push   0x8(%ebp)
c0102d9b:	8d 45 ec             	lea    -0x14(%ebp),%eax
c0102d9e:	50                   	push   %eax
c0102d9f:	ff 75 f4             	push   -0xc(%ebp)
c0102da2:	e8 73 fc ff ff       	call   c0102a1a <__k_mem_split_block>
c0102da7:	83 c4 10             	add    $0x10,%esp
c0102daa:	66 85 c0             	test   %ax,%ax
c0102dad:	74 12                	je     c0102dc1 <k_mem_heap_alloc+0x156>
c0102daf:	83 ec 08             	sub    $0x8,%esp
c0102db2:	6a 00                	push   $0x0
c0102db4:	68 98 73 10 c0       	push   $0xc0107398
c0102db9:	e8 24 ea ff ff       	call   c01017e2 <k_panic>
c0102dbe:	83 c4 10             	add    $0x10,%esp
c0102dc1:	8b 45 f4             	mov    -0xc(%ebp),%eax
c0102dc4:	0f b6 40 08          	movzbl 0x8(%eax),%eax
c0102dc8:	83 e0 fe             	and    $0xfffffffe,%eax
c0102dcb:	89 c2                	mov    %eax,%edx
c0102dcd:	8b 45 f4             	mov    -0xc(%ebp),%eax
c0102dd0:	88 50 08             	mov    %dl,0x8(%eax)
c0102dd3:	8b 45 f4             	mov    -0xc(%ebp),%eax
c0102dd6:	83 c0 09             	add    $0x9,%eax
c0102dd9:	c9                   	leave
c0102dda:	c3                   	ret

c0102ddb <k_mem_heap_free>:
c0102ddb:	55                   	push   %ebp
c0102ddc:	89 e5                	mov    %esp,%ebp
c0102dde:	83 ec 10             	sub    $0x10,%esp
c0102de1:	8b 45 08             	mov    0x8(%ebp),%eax
c0102de4:	83 e8 09             	sub    $0x9,%eax
c0102de7:	89 45 fc             	mov    %eax,-0x4(%ebp)
c0102dea:	ff 75 fc             	push   -0x4(%ebp)
c0102ded:	e8 b2 fb ff ff       	call   c01029a4 <__k_mem_heap_is_valid_block>
c0102df2:	83 c4 04             	add    $0x4,%esp
c0102df5:	84 c0                	test   %al,%al
c0102df7:	74 25                	je     c0102e1e <k_mem_heap_free+0x43>
c0102df9:	8b 45 fc             	mov    -0x4(%ebp),%eax
c0102dfc:	0f b6 40 08          	movzbl 0x8(%eax),%eax
c0102e00:	0f b6 c0             	movzbl %al,%eax
c0102e03:	83 e0 01             	and    $0x1,%eax
c0102e06:	85 c0                	test   %eax,%eax
c0102e08:	75 14                	jne    c0102e1e <k_mem_heap_free+0x43>
c0102e0a:	8b 45 fc             	mov    -0x4(%ebp),%eax
c0102e0d:	0f b6 40 08          	movzbl 0x8(%eax),%eax
c0102e11:	83 c8 01             	or     $0x1,%eax
c0102e14:	89 c2                	mov    %eax,%edx
c0102e16:	8b 45 fc             	mov    -0x4(%ebp),%eax
c0102e19:	88 50 08             	mov    %dl,0x8(%eax)
c0102e1c:	eb 01                	jmp    c0102e1f <k_mem_heap_free+0x44>
c0102e1e:	90                   	nop
c0102e1f:	c9                   	leave
c0102e20:	c3                   	ret

c0102e21 <k_mem_heap_realloc>:
c0102e21:	55                   	push   %ebp
c0102e22:	89 e5                	mov    %esp,%ebp
c0102e24:	83 ec 18             	sub    $0x18,%esp
c0102e27:	8b 45 08             	mov    0x8(%ebp),%eax
c0102e2a:	83 e8 09             	sub    $0x9,%eax
c0102e2d:	89 45 f0             	mov    %eax,-0x10(%ebp)
c0102e30:	83 ec 0c             	sub    $0xc,%esp
c0102e33:	ff 75 0c             	push   0xc(%ebp)
c0102e36:	e8 30 fe ff ff       	call   c0102c6b <k_mem_heap_alloc>
c0102e3b:	83 c4 10             	add    $0x10,%esp
c0102e3e:	89 45 ec             	mov    %eax,-0x14(%ebp)
c0102e41:	c7 45 f4 00 00 00 00 	movl   $0x0,-0xc(%ebp)
c0102e48:	8b 45 f0             	mov    -0x10(%ebp),%eax
c0102e4b:	8b 40 04             	mov    0x4(%eax),%eax
c0102e4e:	3b 45 0c             	cmp    0xc(%ebp),%eax
c0102e51:	73 0b                	jae    c0102e5e <k_mem_heap_realloc+0x3d>
c0102e53:	8b 45 f0             	mov    -0x10(%ebp),%eax
c0102e56:	8b 40 04             	mov    0x4(%eax),%eax
c0102e59:	89 45 f4             	mov    %eax,-0xc(%ebp)
c0102e5c:	eb 06                	jmp    c0102e64 <k_mem_heap_realloc+0x43>
c0102e5e:	8b 45 0c             	mov    0xc(%ebp),%eax
c0102e61:	89 45 f4             	mov    %eax,-0xc(%ebp)
c0102e64:	83 ec 04             	sub    $0x4,%esp
c0102e67:	ff 75 f4             	push   -0xc(%ebp)
c0102e6a:	ff 75 08             	push   0x8(%ebp)
c0102e6d:	ff 75 ec             	push   -0x14(%ebp)
c0102e70:	e8 2b 3b 00 00       	call   c01069a0 <memmove>
c0102e75:	83 c4 10             	add    $0x10,%esp
c0102e78:	83 ec 0c             	sub    $0xc,%esp
c0102e7b:	ff 75 08             	push   0x8(%ebp)
c0102e7e:	e8 58 ff ff ff       	call   c0102ddb <k_mem_heap_free>
c0102e83:	83 c4 10             	add    $0x10,%esp
c0102e86:	8b 45 ec             	mov    -0x14(%ebp),%eax
c0102e89:	c9                   	leave
c0102e8a:	c3                   	ret

c0102e8b <k_mem_heap_valloc>:
c0102e8b:	55                   	push   %ebp
c0102e8c:	89 e5                	mov    %esp,%ebp
c0102e8e:	b8 00 00 00 00       	mov    $0x0,%eax
c0102e93:	5d                   	pop    %ebp
c0102e94:	c3                   	ret

c0102e95 <k_int_idt_create_entry>:
c0102e95:	55                   	push   %ebp
c0102e96:	89 e5                	mov    %esp,%ebp
c0102e98:	53                   	push   %ebx
c0102e99:	83 ec 10             	sub    $0x10,%esp
c0102e9c:	8b 5d 08             	mov    0x8(%ebp),%ebx
c0102e9f:	8b 4d 10             	mov    0x10(%ebp),%ecx
c0102ea2:	8b 55 14             	mov    0x14(%ebp),%edx
c0102ea5:	8b 45 18             	mov    0x18(%ebp),%eax
c0102ea8:	88 5d f8             	mov    %bl,-0x8(%ebp)
c0102eab:	66 89 4d f4          	mov    %cx,-0xc(%ebp)
c0102eaf:	88 55 f0             	mov    %dl,-0x10(%ebp)
c0102eb2:	88 45 ec             	mov    %al,-0x14(%ebp)
c0102eb5:	0f b6 45 f8          	movzbl -0x8(%ebp),%eax
c0102eb9:	8b 55 0c             	mov    0xc(%ebp),%edx
c0102ebc:	66 89 14 c5 e0 b0 10 	mov    %dx,-0x3fef4f20(,%eax,8)
c0102ec3:	c0 
c0102ec4:	8b 45 0c             	mov    0xc(%ebp),%eax
c0102ec7:	c1 e8 10             	shr    $0x10,%eax
c0102eca:	89 c2                	mov    %eax,%edx
c0102ecc:	0f b6 45 f8          	movzbl -0x8(%ebp),%eax
c0102ed0:	66 89 14 c5 e6 b0 10 	mov    %dx,-0x3fef4f1a(,%eax,8)
c0102ed7:	c0 
c0102ed8:	0f b6 45 f8          	movzbl -0x8(%ebp),%eax
c0102edc:	0f b7 55 f4          	movzwl -0xc(%ebp),%edx
c0102ee0:	66 89 14 c5 e2 b0 10 	mov    %dx,-0x3fef4f1e(,%eax,8)
c0102ee7:	c0 
c0102ee8:	0f b6 45 f8          	movzbl -0x8(%ebp),%eax
c0102eec:	c6 04 c5 e4 b0 10 c0 	movb   $0x0,-0x3fef4f1c(,%eax,8)
c0102ef3:	00 
c0102ef4:	0f b6 45 ec          	movzbl -0x14(%ebp),%eax
c0102ef8:	83 e0 0f             	and    $0xf,%eax
c0102efb:	89 c2                	mov    %eax,%edx
c0102efd:	0f b6 45 f0          	movzbl -0x10(%ebp),%eax
c0102f01:	c1 e0 05             	shl    $0x5,%eax
c0102f04:	83 e0 60             	and    $0x60,%eax
c0102f07:	83 c8 80             	or     $0xffffff80,%eax
c0102f0a:	09 c2                	or     %eax,%edx
c0102f0c:	0f b6 45 f8          	movzbl -0x8(%ebp),%eax
c0102f10:	88 14 c5 e5 b0 10 c0 	mov    %dl,-0x3fef4f1b(,%eax,8)
c0102f17:	90                   	nop
c0102f18:	8b 5d fc             	mov    -0x4(%ebp),%ebx
c0102f1b:	c9                   	leave
c0102f1c:	c3                   	ret

c0102f1d <k_int_idt_init>:
c0102f1d:	55                   	push   %ebp
c0102f1e:	89 e5                	mov    %esp,%ebp
c0102f20:	83 ec 08             	sub    $0x8,%esp
c0102f23:	b8 e0 b0 10 c0       	mov    $0xc010b0e0,%eax
c0102f28:	a3 e2 b8 10 c0       	mov    %eax,0xc010b8e2
c0102f2d:	66 c7 05 e0 b8 10 c0 	movw   $0x7ff,0xc010b8e0
c0102f34:	ff 07 
c0102f36:	83 ec 04             	sub    $0x4,%esp
c0102f39:	68 00 08 00 00       	push   $0x800
c0102f3e:	6a 00                	push   $0x0
c0102f40:	68 e0 b0 10 c0       	push   $0xc010b0e0
c0102f45:	e8 e5 39 00 00       	call   c010692f <memset>
c0102f4a:	83 c4 10             	add    $0x10,%esp
c0102f4d:	b8 e0 b8 10 c0       	mov    $0xc010b8e0,%eax
c0102f52:	83 ec 0c             	sub    $0xc,%esp
c0102f55:	50                   	push   %eax
c0102f56:	e8 15 00 00 00       	call   c0102f70 <k_int_load_idt>
c0102f5b:	83 c4 10             	add    $0x10,%esp
c0102f5e:	e8 78 e8 ff ff       	call   c01017db <sti>
c0102f63:	90                   	nop
c0102f64:	c9                   	leave
c0102f65:	c3                   	ret
c0102f66:	66 90                	xchg   %ax,%ax
c0102f68:	66 90                	xchg   %ax,%ax
c0102f6a:	66 90                	xchg   %ax,%ax
c0102f6c:	66 90                	xchg   %ax,%ax
c0102f6e:	66 90                	xchg   %ax,%ax

c0102f70 <k_int_load_idt>:
c0102f70:	8b 44 24 04          	mov    0x4(%esp),%eax
c0102f74:	0f 01 18             	lidtl  (%eax)
c0102f77:	c3                   	ret

c0102f78 <__k_int_isr_dispatcher>:
c0102f78:	55                   	push   %ebp
c0102f79:	89 e5                	mov    %esp,%ebp
c0102f7b:	81 ec 08 04 00 00    	sub    $0x408,%esp
c0102f81:	8b 45 08             	mov    0x8(%ebp),%eax
c0102f84:	8b 40 20             	mov    0x20(%eax),%eax
c0102f87:	8b 04 85 00 b9 10 c0 	mov    -0x3fef4700(,%eax,4),%eax
c0102f8e:	85 c0                	test   %eax,%eax
c0102f90:	75 3e                	jne    c0102fd0 <__k_int_isr_dispatcher+0x58>
c0102f92:	8b 45 08             	mov    0x8(%ebp),%eax
c0102f95:	8b 50 20             	mov    0x20(%eax),%edx
c0102f98:	8b 45 08             	mov    0x8(%ebp),%eax
c0102f9b:	8b 40 20             	mov    0x20(%eax),%eax
c0102f9e:	8b 04 85 20 a0 10 c0 	mov    -0x3fef5fe0(,%eax,4),%eax
c0102fa5:	52                   	push   %edx
c0102fa6:	50                   	push   %eax
c0102fa7:	68 f4 74 10 c0       	push   $0xc01074f4
c0102fac:	8d 85 f8 fb ff ff    	lea    -0x408(%ebp),%eax
c0102fb2:	50                   	push   %eax
c0102fb3:	e8 91 38 00 00       	call   c0106849 <sprintf_>
c0102fb8:	83 c4 10             	add    $0x10,%esp
c0102fbb:	83 ec 08             	sub    $0x8,%esp
c0102fbe:	ff 75 08             	push   0x8(%ebp)
c0102fc1:	8d 85 f8 fb ff ff    	lea    -0x408(%ebp),%eax
c0102fc7:	50                   	push   %eax
c0102fc8:	e8 15 e8 ff ff       	call   c01017e2 <k_panic>
c0102fcd:	83 c4 10             	add    $0x10,%esp
c0102fd0:	8b 45 08             	mov    0x8(%ebp),%eax
c0102fd3:	8b 40 20             	mov    0x20(%eax),%eax
c0102fd6:	8b 04 85 00 b9 10 c0 	mov    -0x3fef4700(,%eax,4),%eax
c0102fdd:	83 ec 0c             	sub    $0xc,%esp
c0102fe0:	ff 75 08             	push   0x8(%ebp)
c0102fe3:	ff d0                	call   *%eax
c0102fe5:	83 c4 10             	add    $0x10,%esp
c0102fe8:	c9                   	leave
c0102fe9:	c3                   	ret

c0102fea <k_int_isr_init>:
c0102fea:	55                   	push   %ebp
c0102feb:	89 e5                	mov    %esp,%ebp
c0102fed:	83 ec 08             	sub    $0x8,%esp
c0102ff0:	83 ec 04             	sub    $0x4,%esp
c0102ff3:	68 00 04 00 00       	push   $0x400
c0102ff8:	6a 00                	push   $0x0
c0102ffa:	68 00 b9 10 c0       	push   $0xc010b900
c0102fff:	e8 2b 39 00 00       	call   c010692f <memset>
c0103004:	83 c4 10             	add    $0x10,%esp
c0103007:	b8 50 33 10 c0       	mov    $0xc0103350,%eax
c010300c:	83 ec 0c             	sub    $0xc,%esp
c010300f:	6a 0e                	push   $0xe
c0103011:	6a 00                	push   $0x0
c0103013:	6a 08                	push   $0x8
c0103015:	50                   	push   %eax
c0103016:	6a 00                	push   $0x0
c0103018:	e8 78 fe ff ff       	call   c0102e95 <k_int_idt_create_entry>
c010301d:	83 c4 20             	add    $0x20,%esp
c0103020:	b8 5c 33 10 c0       	mov    $0xc010335c,%eax
c0103025:	83 ec 0c             	sub    $0xc,%esp
c0103028:	6a 0e                	push   $0xe
c010302a:	6a 00                	push   $0x0
c010302c:	6a 08                	push   $0x8
c010302e:	50                   	push   %eax
c010302f:	6a 01                	push   $0x1
c0103031:	e8 5f fe ff ff       	call   c0102e95 <k_int_idt_create_entry>
c0103036:	83 c4 20             	add    $0x20,%esp
c0103039:	b8 68 33 10 c0       	mov    $0xc0103368,%eax
c010303e:	83 ec 0c             	sub    $0xc,%esp
c0103041:	6a 0e                	push   $0xe
c0103043:	6a 00                	push   $0x0
c0103045:	6a 08                	push   $0x8
c0103047:	50                   	push   %eax
c0103048:	6a 02                	push   $0x2
c010304a:	e8 46 fe ff ff       	call   c0102e95 <k_int_idt_create_entry>
c010304f:	83 c4 20             	add    $0x20,%esp
c0103052:	b8 74 33 10 c0       	mov    $0xc0103374,%eax
c0103057:	83 ec 0c             	sub    $0xc,%esp
c010305a:	6a 0e                	push   $0xe
c010305c:	6a 00                	push   $0x0
c010305e:	6a 08                	push   $0x8
c0103060:	50                   	push   %eax
c0103061:	6a 03                	push   $0x3
c0103063:	e8 2d fe ff ff       	call   c0102e95 <k_int_idt_create_entry>
c0103068:	83 c4 20             	add    $0x20,%esp
c010306b:	b8 80 33 10 c0       	mov    $0xc0103380,%eax
c0103070:	83 ec 0c             	sub    $0xc,%esp
c0103073:	6a 0e                	push   $0xe
c0103075:	6a 00                	push   $0x0
c0103077:	6a 08                	push   $0x8
c0103079:	50                   	push   %eax
c010307a:	6a 04                	push   $0x4
c010307c:	e8 14 fe ff ff       	call   c0102e95 <k_int_idt_create_entry>
c0103081:	83 c4 20             	add    $0x20,%esp
c0103084:	b8 8c 33 10 c0       	mov    $0xc010338c,%eax
c0103089:	83 ec 0c             	sub    $0xc,%esp
c010308c:	6a 0e                	push   $0xe
c010308e:	6a 00                	push   $0x0
c0103090:	6a 08                	push   $0x8
c0103092:	50                   	push   %eax
c0103093:	6a 05                	push   $0x5
c0103095:	e8 fb fd ff ff       	call   c0102e95 <k_int_idt_create_entry>
c010309a:	83 c4 20             	add    $0x20,%esp
c010309d:	b8 98 33 10 c0       	mov    $0xc0103398,%eax
c01030a2:	83 ec 0c             	sub    $0xc,%esp
c01030a5:	6a 0e                	push   $0xe
c01030a7:	6a 00                	push   $0x0
c01030a9:	6a 08                	push   $0x8
c01030ab:	50                   	push   %eax
c01030ac:	6a 06                	push   $0x6
c01030ae:	e8 e2 fd ff ff       	call   c0102e95 <k_int_idt_create_entry>
c01030b3:	83 c4 20             	add    $0x20,%esp
c01030b6:	b8 a4 33 10 c0       	mov    $0xc01033a4,%eax
c01030bb:	83 ec 0c             	sub    $0xc,%esp
c01030be:	6a 0e                	push   $0xe
c01030c0:	6a 00                	push   $0x0
c01030c2:	6a 08                	push   $0x8
c01030c4:	50                   	push   %eax
c01030c5:	6a 07                	push   $0x7
c01030c7:	e8 c9 fd ff ff       	call   c0102e95 <k_int_idt_create_entry>
c01030cc:	83 c4 20             	add    $0x20,%esp
c01030cf:	b8 b0 33 10 c0       	mov    $0xc01033b0,%eax
c01030d4:	83 ec 0c             	sub    $0xc,%esp
c01030d7:	6a 0e                	push   $0xe
c01030d9:	6a 00                	push   $0x0
c01030db:	6a 08                	push   $0x8
c01030dd:	50                   	push   %eax
c01030de:	6a 08                	push   $0x8
c01030e0:	e8 b0 fd ff ff       	call   c0102e95 <k_int_idt_create_entry>
c01030e5:	83 c4 20             	add    $0x20,%esp
c01030e8:	b8 b8 33 10 c0       	mov    $0xc01033b8,%eax
c01030ed:	83 ec 0c             	sub    $0xc,%esp
c01030f0:	6a 0e                	push   $0xe
c01030f2:	6a 00                	push   $0x0
c01030f4:	6a 08                	push   $0x8
c01030f6:	50                   	push   %eax
c01030f7:	6a 09                	push   $0x9
c01030f9:	e8 97 fd ff ff       	call   c0102e95 <k_int_idt_create_entry>
c01030fe:	83 c4 20             	add    $0x20,%esp
c0103101:	b8 c0 33 10 c0       	mov    $0xc01033c0,%eax
c0103106:	83 ec 0c             	sub    $0xc,%esp
c0103109:	6a 0e                	push   $0xe
c010310b:	6a 00                	push   $0x0
c010310d:	6a 08                	push   $0x8
c010310f:	50                   	push   %eax
c0103110:	6a 0a                	push   $0xa
c0103112:	e8 7e fd ff ff       	call   c0102e95 <k_int_idt_create_entry>
c0103117:	83 c4 20             	add    $0x20,%esp
c010311a:	b8 c8 33 10 c0       	mov    $0xc01033c8,%eax
c010311f:	83 ec 0c             	sub    $0xc,%esp
c0103122:	6a 0e                	push   $0xe
c0103124:	6a 00                	push   $0x0
c0103126:	6a 08                	push   $0x8
c0103128:	50                   	push   %eax
c0103129:	6a 0b                	push   $0xb
c010312b:	e8 65 fd ff ff       	call   c0102e95 <k_int_idt_create_entry>
c0103130:	83 c4 20             	add    $0x20,%esp
c0103133:	b8 d0 33 10 c0       	mov    $0xc01033d0,%eax
c0103138:	83 ec 0c             	sub    $0xc,%esp
c010313b:	6a 0e                	push   $0xe
c010313d:	6a 00                	push   $0x0
c010313f:	6a 08                	push   $0x8
c0103141:	50                   	push   %eax
c0103142:	6a 0c                	push   $0xc
c0103144:	e8 4c fd ff ff       	call   c0102e95 <k_int_idt_create_entry>
c0103149:	83 c4 20             	add    $0x20,%esp
c010314c:	b8 d4 33 10 c0       	mov    $0xc01033d4,%eax
c0103151:	83 ec 0c             	sub    $0xc,%esp
c0103154:	6a 0e                	push   $0xe
c0103156:	6a 00                	push   $0x0
c0103158:	6a 08                	push   $0x8
c010315a:	50                   	push   %eax
c010315b:	6a 0d                	push   $0xd
c010315d:	e8 33 fd ff ff       	call   c0102e95 <k_int_idt_create_entry>
c0103162:	83 c4 20             	add    $0x20,%esp
c0103165:	b8 d8 33 10 c0       	mov    $0xc01033d8,%eax
c010316a:	83 ec 0c             	sub    $0xc,%esp
c010316d:	6a 0e                	push   $0xe
c010316f:	6a 00                	push   $0x0
c0103171:	6a 08                	push   $0x8
c0103173:	50                   	push   %eax
c0103174:	6a 0e                	push   $0xe
c0103176:	e8 1a fd ff ff       	call   c0102e95 <k_int_idt_create_entry>
c010317b:	83 c4 20             	add    $0x20,%esp
c010317e:	b8 dc 33 10 c0       	mov    $0xc01033dc,%eax
c0103183:	83 ec 0c             	sub    $0xc,%esp
c0103186:	6a 0e                	push   $0xe
c0103188:	6a 00                	push   $0x0
c010318a:	6a 08                	push   $0x8
c010318c:	50                   	push   %eax
c010318d:	6a 0f                	push   $0xf
c010318f:	e8 01 fd ff ff       	call   c0102e95 <k_int_idt_create_entry>
c0103194:	83 c4 20             	add    $0x20,%esp
c0103197:	b8 e4 33 10 c0       	mov    $0xc01033e4,%eax
c010319c:	83 ec 0c             	sub    $0xc,%esp
c010319f:	6a 0e                	push   $0xe
c01031a1:	6a 00                	push   $0x0
c01031a3:	6a 08                	push   $0x8
c01031a5:	50                   	push   %eax
c01031a6:	6a 10                	push   $0x10
c01031a8:	e8 e8 fc ff ff       	call   c0102e95 <k_int_idt_create_entry>
c01031ad:	83 c4 20             	add    $0x20,%esp
c01031b0:	b8 ec 33 10 c0       	mov    $0xc01033ec,%eax
c01031b5:	83 ec 0c             	sub    $0xc,%esp
c01031b8:	6a 0e                	push   $0xe
c01031ba:	6a 00                	push   $0x0
c01031bc:	6a 08                	push   $0x8
c01031be:	50                   	push   %eax
c01031bf:	6a 11                	push   $0x11
c01031c1:	e8 cf fc ff ff       	call   c0102e95 <k_int_idt_create_entry>
c01031c6:	83 c4 20             	add    $0x20,%esp
c01031c9:	b8 f0 33 10 c0       	mov    $0xc01033f0,%eax
c01031ce:	83 ec 0c             	sub    $0xc,%esp
c01031d1:	6a 0e                	push   $0xe
c01031d3:	6a 00                	push   $0x0
c01031d5:	6a 08                	push   $0x8
c01031d7:	50                   	push   %eax
c01031d8:	6a 12                	push   $0x12
c01031da:	e8 b6 fc ff ff       	call   c0102e95 <k_int_idt_create_entry>
c01031df:	83 c4 20             	add    $0x20,%esp
c01031e2:	b8 f8 33 10 c0       	mov    $0xc01033f8,%eax
c01031e7:	83 ec 0c             	sub    $0xc,%esp
c01031ea:	6a 0e                	push   $0xe
c01031ec:	6a 00                	push   $0x0
c01031ee:	6a 08                	push   $0x8
c01031f0:	50                   	push   %eax
c01031f1:	6a 13                	push   $0x13
c01031f3:	e8 9d fc ff ff       	call   c0102e95 <k_int_idt_create_entry>
c01031f8:	83 c4 20             	add    $0x20,%esp
c01031fb:	b8 00 34 10 c0       	mov    $0xc0103400,%eax
c0103200:	83 ec 0c             	sub    $0xc,%esp
c0103203:	6a 0e                	push   $0xe
c0103205:	6a 00                	push   $0x0
c0103207:	6a 08                	push   $0x8
c0103209:	50                   	push   %eax
c010320a:	6a 14                	push   $0x14
c010320c:	e8 84 fc ff ff       	call   c0102e95 <k_int_idt_create_entry>
c0103211:	83 c4 20             	add    $0x20,%esp
c0103214:	b8 08 34 10 c0       	mov    $0xc0103408,%eax
c0103219:	83 ec 0c             	sub    $0xc,%esp
c010321c:	6a 0e                	push   $0xe
c010321e:	6a 00                	push   $0x0
c0103220:	6a 08                	push   $0x8
c0103222:	50                   	push   %eax
c0103223:	6a 15                	push   $0x15
c0103225:	e8 6b fc ff ff       	call   c0102e95 <k_int_idt_create_entry>
c010322a:	83 c4 20             	add    $0x20,%esp
c010322d:	b8 0c 34 10 c0       	mov    $0xc010340c,%eax
c0103232:	83 ec 0c             	sub    $0xc,%esp
c0103235:	6a 0e                	push   $0xe
c0103237:	6a 00                	push   $0x0
c0103239:	6a 08                	push   $0x8
c010323b:	50                   	push   %eax
c010323c:	6a 16                	push   $0x16
c010323e:	e8 52 fc ff ff       	call   c0102e95 <k_int_idt_create_entry>
c0103243:	83 c4 20             	add    $0x20,%esp
c0103246:	b8 14 34 10 c0       	mov    $0xc0103414,%eax
c010324b:	83 ec 0c             	sub    $0xc,%esp
c010324e:	6a 0e                	push   $0xe
c0103250:	6a 00                	push   $0x0
c0103252:	6a 08                	push   $0x8
c0103254:	50                   	push   %eax
c0103255:	6a 17                	push   $0x17
c0103257:	e8 39 fc ff ff       	call   c0102e95 <k_int_idt_create_entry>
c010325c:	83 c4 20             	add    $0x20,%esp
c010325f:	b8 1c 34 10 c0       	mov    $0xc010341c,%eax
c0103264:	83 ec 0c             	sub    $0xc,%esp
c0103267:	6a 0e                	push   $0xe
c0103269:	6a 00                	push   $0x0
c010326b:	6a 08                	push   $0x8
c010326d:	50                   	push   %eax
c010326e:	6a 18                	push   $0x18
c0103270:	e8 20 fc ff ff       	call   c0102e95 <k_int_idt_create_entry>
c0103275:	83 c4 20             	add    $0x20,%esp
c0103278:	b8 24 34 10 c0       	mov    $0xc0103424,%eax
c010327d:	83 ec 0c             	sub    $0xc,%esp
c0103280:	6a 0e                	push   $0xe
c0103282:	6a 00                	push   $0x0
c0103284:	6a 08                	push   $0x8
c0103286:	50                   	push   %eax
c0103287:	6a 19                	push   $0x19
c0103289:	e8 07 fc ff ff       	call   c0102e95 <k_int_idt_create_entry>
c010328e:	83 c4 20             	add    $0x20,%esp
c0103291:	b8 2c 34 10 c0       	mov    $0xc010342c,%eax
c0103296:	83 ec 0c             	sub    $0xc,%esp
c0103299:	6a 0e                	push   $0xe
c010329b:	6a 00                	push   $0x0
c010329d:	6a 08                	push   $0x8
c010329f:	50                   	push   %eax
c01032a0:	6a 1a                	push   $0x1a
c01032a2:	e8 ee fb ff ff       	call   c0102e95 <k_int_idt_create_entry>
c01032a7:	83 c4 20             	add    $0x20,%esp
c01032aa:	b8 34 34 10 c0       	mov    $0xc0103434,%eax
c01032af:	83 ec 0c             	sub    $0xc,%esp
c01032b2:	6a 0e                	push   $0xe
c01032b4:	6a 00                	push   $0x0
c01032b6:	6a 08                	push   $0x8
c01032b8:	50                   	push   %eax
c01032b9:	6a 1b                	push   $0x1b
c01032bb:	e8 d5 fb ff ff       	call   c0102e95 <k_int_idt_create_entry>
c01032c0:	83 c4 20             	add    $0x20,%esp
c01032c3:	b8 3c 34 10 c0       	mov    $0xc010343c,%eax
c01032c8:	83 ec 0c             	sub    $0xc,%esp
c01032cb:	6a 0e                	push   $0xe
c01032cd:	6a 00                	push   $0x0
c01032cf:	6a 08                	push   $0x8
c01032d1:	50                   	push   %eax
c01032d2:	6a 1c                	push   $0x1c
c01032d4:	e8 bc fb ff ff       	call   c0102e95 <k_int_idt_create_entry>
c01032d9:	83 c4 20             	add    $0x20,%esp
c01032dc:	b8 44 34 10 c0       	mov    $0xc0103444,%eax
c01032e1:	83 ec 0c             	sub    $0xc,%esp
c01032e4:	6a 0e                	push   $0xe
c01032e6:	6a 00                	push   $0x0
c01032e8:	6a 08                	push   $0x8
c01032ea:	50                   	push   %eax
c01032eb:	6a 1d                	push   $0x1d
c01032ed:	e8 a3 fb ff ff       	call   c0102e95 <k_int_idt_create_entry>
c01032f2:	83 c4 20             	add    $0x20,%esp
c01032f5:	b8 48 34 10 c0       	mov    $0xc0103448,%eax
c01032fa:	83 ec 0c             	sub    $0xc,%esp
c01032fd:	6a 0e                	push   $0xe
c01032ff:	6a 00                	push   $0x0
c0103301:	6a 08                	push   $0x8
c0103303:	50                   	push   %eax
c0103304:	6a 1e                	push   $0x1e
c0103306:	e8 8a fb ff ff       	call   c0102e95 <k_int_idt_create_entry>
c010330b:	83 c4 20             	add    $0x20,%esp
c010330e:	b8 4c 34 10 c0       	mov    $0xc010344c,%eax
c0103313:	83 ec 0c             	sub    $0xc,%esp
c0103316:	6a 0e                	push   $0xe
c0103318:	6a 00                	push   $0x0
c010331a:	6a 08                	push   $0x8
c010331c:	50                   	push   %eax
c010331d:	6a 1f                	push   $0x1f
c010331f:	e8 71 fb ff ff       	call   c0102e95 <k_int_idt_create_entry>
c0103324:	83 c4 20             	add    $0x20,%esp
c0103327:	90                   	nop
c0103328:	c9                   	leave
c0103329:	c3                   	ret

c010332a <k_int_isr_setup_handler>:
c010332a:	55                   	push   %ebp
c010332b:	89 e5                	mov    %esp,%ebp
c010332d:	83 ec 04             	sub    $0x4,%esp
c0103330:	8b 45 08             	mov    0x8(%ebp),%eax
c0103333:	88 45 fc             	mov    %al,-0x4(%ebp)
c0103336:	0f b6 45 fc          	movzbl -0x4(%ebp),%eax
c010333a:	8b 55 0c             	mov    0xc(%ebp),%edx
c010333d:	89 14 85 00 b9 10 c0 	mov    %edx,-0x3fef4700(,%eax,4)
c0103344:	90                   	nop
c0103345:	c9                   	leave
c0103346:	c3                   	ret
c0103347:	66 90                	xchg   %ax,%ax
c0103349:	66 90                	xchg   %ax,%ax
c010334b:	66 90                	xchg   %ax,%ax
c010334d:	66 90                	xchg   %ax,%ax
c010334f:	90                   	nop

c0103350 <_isr0>:
c0103350:	6a 00                	push   $0x0
c0103352:	6a 00                	push   $0x0
c0103354:	e9 f9 00 00 00       	jmp    c0103452 <isr_stub>
c0103359:	90                   	nop
c010335a:	90                   	nop
c010335b:	90                   	nop

c010335c <_isr1>:
c010335c:	6a 00                	push   $0x0
c010335e:	6a 01                	push   $0x1
c0103360:	e9 ed 00 00 00       	jmp    c0103452 <isr_stub>
c0103365:	90                   	nop
c0103366:	90                   	nop
c0103367:	90                   	nop

c0103368 <_isr2>:
c0103368:	6a 00                	push   $0x0
c010336a:	6a 02                	push   $0x2
c010336c:	e9 e1 00 00 00       	jmp    c0103452 <isr_stub>
c0103371:	90                   	nop
c0103372:	90                   	nop
c0103373:	90                   	nop

c0103374 <_isr3>:
c0103374:	6a 00                	push   $0x0
c0103376:	6a 03                	push   $0x3
c0103378:	e9 d5 00 00 00       	jmp    c0103452 <isr_stub>
c010337d:	90                   	nop
c010337e:	90                   	nop
c010337f:	90                   	nop

c0103380 <_isr4>:
c0103380:	6a 00                	push   $0x0
c0103382:	6a 04                	push   $0x4
c0103384:	e9 c9 00 00 00       	jmp    c0103452 <isr_stub>
c0103389:	90                   	nop
c010338a:	90                   	nop
c010338b:	90                   	nop

c010338c <_isr5>:
c010338c:	6a 00                	push   $0x0
c010338e:	6a 05                	push   $0x5
c0103390:	e9 bd 00 00 00       	jmp    c0103452 <isr_stub>
c0103395:	90                   	nop
c0103396:	90                   	nop
c0103397:	90                   	nop

c0103398 <_isr6>:
c0103398:	6a 00                	push   $0x0
c010339a:	6a 06                	push   $0x6
c010339c:	e9 b1 00 00 00       	jmp    c0103452 <isr_stub>
c01033a1:	90                   	nop
c01033a2:	90                   	nop
c01033a3:	90                   	nop

c01033a4 <_isr7>:
c01033a4:	6a 00                	push   $0x0
c01033a6:	6a 07                	push   $0x7
c01033a8:	e9 a5 00 00 00       	jmp    c0103452 <isr_stub>
c01033ad:	90                   	nop
c01033ae:	90                   	nop
c01033af:	90                   	nop

c01033b0 <_isr8>:
c01033b0:	6a 08                	push   $0x8
c01033b2:	e9 9b 00 00 00       	jmp    c0103452 <isr_stub>
c01033b7:	90                   	nop

c01033b8 <_isr9>:
c01033b8:	6a 09                	push   $0x9
c01033ba:	e9 93 00 00 00       	jmp    c0103452 <isr_stub>
c01033bf:	90                   	nop

c01033c0 <_isr10>:
c01033c0:	6a 0a                	push   $0xa
c01033c2:	e9 8b 00 00 00       	jmp    c0103452 <isr_stub>
c01033c7:	90                   	nop

c01033c8 <_isr11>:
c01033c8:	6a 0b                	push   $0xb
c01033ca:	e9 83 00 00 00       	jmp    c0103452 <isr_stub>
c01033cf:	90                   	nop

c01033d0 <_isr12>:
c01033d0:	6a 0c                	push   $0xc
c01033d2:	eb 7e                	jmp    c0103452 <isr_stub>

c01033d4 <_isr13>:
c01033d4:	6a 0d                	push   $0xd
c01033d6:	eb 7a                	jmp    c0103452 <isr_stub>

c01033d8 <_isr14>:
c01033d8:	6a 0e                	push   $0xe
c01033da:	eb 76                	jmp    c0103452 <isr_stub>

c01033dc <_isr15>:
c01033dc:	6a 00                	push   $0x0
c01033de:	6a 0f                	push   $0xf
c01033e0:	eb 70                	jmp    c0103452 <isr_stub>
c01033e2:	90                   	nop
c01033e3:	90                   	nop

c01033e4 <_isr16>:
c01033e4:	6a 00                	push   $0x0
c01033e6:	6a 10                	push   $0x10
c01033e8:	eb 68                	jmp    c0103452 <isr_stub>
c01033ea:	90                   	nop
c01033eb:	90                   	nop

c01033ec <_isr17>:
c01033ec:	6a 11                	push   $0x11
c01033ee:	eb 62                	jmp    c0103452 <isr_stub>

c01033f0 <_isr18>:
c01033f0:	6a 00                	push   $0x0
c01033f2:	6a 12                	push   $0x12
c01033f4:	eb 5c                	jmp    c0103452 <isr_stub>
c01033f6:	90                   	nop
c01033f7:	90                   	nop

c01033f8 <_isr19>:
c01033f8:	6a 00                	push   $0x0
c01033fa:	6a 13                	push   $0x13
c01033fc:	eb 54                	jmp    c0103452 <isr_stub>
c01033fe:	90                   	nop
c01033ff:	90                   	nop

c0103400 <_isr20>:
c0103400:	6a 00                	push   $0x0
c0103402:	6a 14                	push   $0x14
c0103404:	eb 4c                	jmp    c0103452 <isr_stub>
c0103406:	90                   	nop
c0103407:	90                   	nop

c0103408 <_isr21>:
c0103408:	6a 15                	push   $0x15
c010340a:	eb 46                	jmp    c0103452 <isr_stub>

c010340c <_isr22>:
c010340c:	6a 00                	push   $0x0
c010340e:	6a 16                	push   $0x16
c0103410:	eb 40                	jmp    c0103452 <isr_stub>
c0103412:	90                   	nop
c0103413:	90                   	nop

c0103414 <_isr23>:
c0103414:	6a 00                	push   $0x0
c0103416:	6a 17                	push   $0x17
c0103418:	eb 38                	jmp    c0103452 <isr_stub>
c010341a:	90                   	nop
c010341b:	90                   	nop

c010341c <_isr24>:
c010341c:	6a 00                	push   $0x0
c010341e:	6a 18                	push   $0x18
c0103420:	eb 30                	jmp    c0103452 <isr_stub>
c0103422:	90                   	nop
c0103423:	90                   	nop

c0103424 <_isr25>:
c0103424:	6a 00                	push   $0x0
c0103426:	6a 19                	push   $0x19
c0103428:	eb 28                	jmp    c0103452 <isr_stub>
c010342a:	90                   	nop
c010342b:	90                   	nop

c010342c <_isr26>:
c010342c:	6a 00                	push   $0x0
c010342e:	6a 1a                	push   $0x1a
c0103430:	eb 20                	jmp    c0103452 <isr_stub>
c0103432:	90                   	nop
c0103433:	90                   	nop

c0103434 <_isr27>:
c0103434:	6a 00                	push   $0x0
c0103436:	6a 1b                	push   $0x1b
c0103438:	eb 18                	jmp    c0103452 <isr_stub>
c010343a:	90                   	nop
c010343b:	90                   	nop

c010343c <_isr28>:
c010343c:	6a 00                	push   $0x0
c010343e:	6a 1c                	push   $0x1c
c0103440:	eb 10                	jmp    c0103452 <isr_stub>
c0103442:	90                   	nop
c0103443:	90                   	nop

c0103444 <_isr29>:
c0103444:	6a 1d                	push   $0x1d
c0103446:	eb 0a                	jmp    c0103452 <isr_stub>

c0103448 <_isr30>:
c0103448:	6a 1e                	push   $0x1e
c010344a:	eb 06                	jmp    c0103452 <isr_stub>

c010344c <_isr31>:
c010344c:	6a 00                	push   $0x0
c010344e:	6a 1f                	push   $0x1f
c0103450:	eb 00                	jmp    c0103452 <isr_stub>

c0103452 <isr_stub>:
c0103452:	60                   	pusha
c0103453:	fc                   	cld
c0103454:	89 e7                	mov    %esp,%edi
c0103456:	57                   	push   %edi
c0103457:	e8 1c fb ff ff       	call   c0102f78 <__k_int_isr_dispatcher>
c010345c:	5f                   	pop    %edi
c010345d:	89 c4                	mov    %eax,%esp
c010345f:	61                   	popa
c0103460:	83 c4 08             	add    $0x8,%esp
c0103463:	cf                   	iret

c0103464 <k_int_irq_init>:
c0103464:	55                   	push   %ebp
c0103465:	89 e5                	mov    %esp,%ebp
c0103467:	83 ec 08             	sub    $0x8,%esp
c010346a:	83 ec 04             	sub    $0x4,%esp
c010346d:	6a 40                	push   $0x40
c010346f:	6a 00                	push   $0x0
c0103471:	68 00 bd 10 c0       	push   $0xc010bd00
c0103476:	e8 b4 34 00 00       	call   c010692f <memset>
c010347b:	83 c4 10             	add    $0x10,%esp
c010347e:	b8 80 36 10 c0       	mov    $0xc0103680,%eax
c0103483:	83 ec 0c             	sub    $0xc,%esp
c0103486:	6a 0e                	push   $0xe
c0103488:	6a 00                	push   $0x0
c010348a:	6a 08                	push   $0x8
c010348c:	50                   	push   %eax
c010348d:	6a 20                	push   $0x20
c010348f:	e8 01 fa ff ff       	call   c0102e95 <k_int_idt_create_entry>
c0103494:	83 c4 20             	add    $0x20,%esp
c0103497:	b8 88 36 10 c0       	mov    $0xc0103688,%eax
c010349c:	83 ec 0c             	sub    $0xc,%esp
c010349f:	6a 0e                	push   $0xe
c01034a1:	6a 00                	push   $0x0
c01034a3:	6a 08                	push   $0x8
c01034a5:	50                   	push   %eax
c01034a6:	6a 21                	push   $0x21
c01034a8:	e8 e8 f9 ff ff       	call   c0102e95 <k_int_idt_create_entry>
c01034ad:	83 c4 20             	add    $0x20,%esp
c01034b0:	b8 90 36 10 c0       	mov    $0xc0103690,%eax
c01034b5:	83 ec 0c             	sub    $0xc,%esp
c01034b8:	6a 0e                	push   $0xe
c01034ba:	6a 00                	push   $0x0
c01034bc:	6a 08                	push   $0x8
c01034be:	50                   	push   %eax
c01034bf:	6a 22                	push   $0x22
c01034c1:	e8 cf f9 ff ff       	call   c0102e95 <k_int_idt_create_entry>
c01034c6:	83 c4 20             	add    $0x20,%esp
c01034c9:	b8 98 36 10 c0       	mov    $0xc0103698,%eax
c01034ce:	83 ec 0c             	sub    $0xc,%esp
c01034d1:	6a 0e                	push   $0xe
c01034d3:	6a 00                	push   $0x0
c01034d5:	6a 08                	push   $0x8
c01034d7:	50                   	push   %eax
c01034d8:	6a 23                	push   $0x23
c01034da:	e8 b6 f9 ff ff       	call   c0102e95 <k_int_idt_create_entry>
c01034df:	83 c4 20             	add    $0x20,%esp
c01034e2:	b8 a0 36 10 c0       	mov    $0xc01036a0,%eax
c01034e7:	83 ec 0c             	sub    $0xc,%esp
c01034ea:	6a 0e                	push   $0xe
c01034ec:	6a 00                	push   $0x0
c01034ee:	6a 08                	push   $0x8
c01034f0:	50                   	push   %eax
c01034f1:	6a 24                	push   $0x24
c01034f3:	e8 9d f9 ff ff       	call   c0102e95 <k_int_idt_create_entry>
c01034f8:	83 c4 20             	add    $0x20,%esp
c01034fb:	b8 a8 36 10 c0       	mov    $0xc01036a8,%eax
c0103500:	83 ec 0c             	sub    $0xc,%esp
c0103503:	6a 0e                	push   $0xe
c0103505:	6a 00                	push   $0x0
c0103507:	6a 08                	push   $0x8
c0103509:	50                   	push   %eax
c010350a:	6a 25                	push   $0x25
c010350c:	e8 84 f9 ff ff       	call   c0102e95 <k_int_idt_create_entry>
c0103511:	83 c4 20             	add    $0x20,%esp
c0103514:	b8 b0 36 10 c0       	mov    $0xc01036b0,%eax
c0103519:	83 ec 0c             	sub    $0xc,%esp
c010351c:	6a 0e                	push   $0xe
c010351e:	6a 00                	push   $0x0
c0103520:	6a 08                	push   $0x8
c0103522:	50                   	push   %eax
c0103523:	6a 26                	push   $0x26
c0103525:	e8 6b f9 ff ff       	call   c0102e95 <k_int_idt_create_entry>
c010352a:	83 c4 20             	add    $0x20,%esp
c010352d:	b8 b8 36 10 c0       	mov    $0xc01036b8,%eax
c0103532:	83 ec 0c             	sub    $0xc,%esp
c0103535:	6a 0e                	push   $0xe
c0103537:	6a 00                	push   $0x0
c0103539:	6a 08                	push   $0x8
c010353b:	50                   	push   %eax
c010353c:	6a 27                	push   $0x27
c010353e:	e8 52 f9 ff ff       	call   c0102e95 <k_int_idt_create_entry>
c0103543:	83 c4 20             	add    $0x20,%esp
c0103546:	b8 c0 36 10 c0       	mov    $0xc01036c0,%eax
c010354b:	83 ec 0c             	sub    $0xc,%esp
c010354e:	6a 0e                	push   $0xe
c0103550:	6a 00                	push   $0x0
c0103552:	6a 08                	push   $0x8
c0103554:	50                   	push   %eax
c0103555:	6a 28                	push   $0x28
c0103557:	e8 39 f9 ff ff       	call   c0102e95 <k_int_idt_create_entry>
c010355c:	83 c4 20             	add    $0x20,%esp
c010355f:	b8 c8 36 10 c0       	mov    $0xc01036c8,%eax
c0103564:	83 ec 0c             	sub    $0xc,%esp
c0103567:	6a 0e                	push   $0xe
c0103569:	6a 00                	push   $0x0
c010356b:	6a 08                	push   $0x8
c010356d:	50                   	push   %eax
c010356e:	6a 29                	push   $0x29
c0103570:	e8 20 f9 ff ff       	call   c0102e95 <k_int_idt_create_entry>
c0103575:	83 c4 20             	add    $0x20,%esp
c0103578:	b8 d0 36 10 c0       	mov    $0xc01036d0,%eax
c010357d:	83 ec 0c             	sub    $0xc,%esp
c0103580:	6a 0e                	push   $0xe
c0103582:	6a 00                	push   $0x0
c0103584:	6a 08                	push   $0x8
c0103586:	50                   	push   %eax
c0103587:	6a 2a                	push   $0x2a
c0103589:	e8 07 f9 ff ff       	call   c0102e95 <k_int_idt_create_entry>
c010358e:	83 c4 20             	add    $0x20,%esp
c0103591:	b8 d8 36 10 c0       	mov    $0xc01036d8,%eax
c0103596:	83 ec 0c             	sub    $0xc,%esp
c0103599:	6a 0e                	push   $0xe
c010359b:	6a 00                	push   $0x0
c010359d:	6a 08                	push   $0x8
c010359f:	50                   	push   %eax
c01035a0:	6a 2b                	push   $0x2b
c01035a2:	e8 ee f8 ff ff       	call   c0102e95 <k_int_idt_create_entry>
c01035a7:	83 c4 20             	add    $0x20,%esp
c01035aa:	b8 e0 36 10 c0       	mov    $0xc01036e0,%eax
c01035af:	83 ec 0c             	sub    $0xc,%esp
c01035b2:	6a 0e                	push   $0xe
c01035b4:	6a 00                	push   $0x0
c01035b6:	6a 08                	push   $0x8
c01035b8:	50                   	push   %eax
c01035b9:	6a 2c                	push   $0x2c
c01035bb:	e8 d5 f8 ff ff       	call   c0102e95 <k_int_idt_create_entry>
c01035c0:	83 c4 20             	add    $0x20,%esp
c01035c3:	b8 e8 36 10 c0       	mov    $0xc01036e8,%eax
c01035c8:	83 ec 0c             	sub    $0xc,%esp
c01035cb:	6a 0e                	push   $0xe
c01035cd:	6a 00                	push   $0x0
c01035cf:	6a 08                	push   $0x8
c01035d1:	50                   	push   %eax
c01035d2:	6a 2d                	push   $0x2d
c01035d4:	e8 bc f8 ff ff       	call   c0102e95 <k_int_idt_create_entry>
c01035d9:	83 c4 20             	add    $0x20,%esp
c01035dc:	b8 f0 36 10 c0       	mov    $0xc01036f0,%eax
c01035e1:	83 ec 0c             	sub    $0xc,%esp
c01035e4:	6a 0e                	push   $0xe
c01035e6:	6a 00                	push   $0x0
c01035e8:	6a 08                	push   $0x8
c01035ea:	50                   	push   %eax
c01035eb:	6a 2e                	push   $0x2e
c01035ed:	e8 a3 f8 ff ff       	call   c0102e95 <k_int_idt_create_entry>
c01035f2:	83 c4 20             	add    $0x20,%esp
c01035f5:	b8 f8 36 10 c0       	mov    $0xc01036f8,%eax
c01035fa:	83 ec 0c             	sub    $0xc,%esp
c01035fd:	6a 0e                	push   $0xe
c01035ff:	6a 00                	push   $0x0
c0103601:	6a 08                	push   $0x8
c0103603:	50                   	push   %eax
c0103604:	6a 2f                	push   $0x2f
c0103606:	e8 8a f8 ff ff       	call   c0102e95 <k_int_idt_create_entry>
c010360b:	83 c4 20             	add    $0x20,%esp
c010360e:	90                   	nop
c010360f:	c9                   	leave
c0103610:	c3                   	ret

c0103611 <k_int_irq_setup_handler>:
c0103611:	55                   	push   %ebp
c0103612:	89 e5                	mov    %esp,%ebp
c0103614:	83 ec 04             	sub    $0x4,%esp
c0103617:	8b 45 08             	mov    0x8(%ebp),%eax
c010361a:	88 45 fc             	mov    %al,-0x4(%ebp)
c010361d:	0f b6 45 fc          	movzbl -0x4(%ebp),%eax
c0103621:	8b 55 0c             	mov    0xc(%ebp),%edx
c0103624:	89 14 85 00 bd 10 c0 	mov    %edx,-0x3fef4300(,%eax,4)
c010362b:	90                   	nop
c010362c:	c9                   	leave
c010362d:	c3                   	ret

c010362e <__k_int_irq_dispatcher>:
c010362e:	55                   	push   %ebp
c010362f:	89 e5                	mov    %esp,%ebp
c0103631:	83 ec 18             	sub    $0x18,%esp
c0103634:	8b 45 08             	mov    0x8(%ebp),%eax
c0103637:	8b 40 20             	mov    0x20(%eax),%eax
c010363a:	88 45 f7             	mov    %al,-0x9(%ebp)
c010363d:	0f b6 45 f7          	movzbl -0x9(%ebp),%eax
c0103641:	8b 04 85 00 bd 10 c0 	mov    -0x3fef4300(,%eax,4),%eax
c0103648:	85 c0                	test   %eax,%eax
c010364a:	74 18                	je     c0103664 <__k_int_irq_dispatcher+0x36>
c010364c:	0f b6 45 f7          	movzbl -0x9(%ebp),%eax
c0103650:	8b 04 85 00 bd 10 c0 	mov    -0x3fef4300(,%eax,4),%eax
c0103657:	83 ec 0c             	sub    $0xc,%esp
c010365a:	ff 75 08             	push   0x8(%ebp)
c010365d:	ff d0                	call   *%eax
c010365f:	83 c4 10             	add    $0x10,%esp
c0103662:	eb 13                	jmp    c0103677 <__k_int_irq_dispatcher+0x49>
c0103664:	0f b6 45 f7          	movzbl -0x9(%ebp),%eax
c0103668:	83 ec 0c             	sub    $0xc,%esp
c010366b:	50                   	push   %eax
c010366c:	e8 a1 00 00 00       	call   c0103712 <k_int_pic_eoi>
c0103671:	83 c4 10             	add    $0x10,%esp
c0103674:	8b 45 08             	mov    0x8(%ebp),%eax
c0103677:	c9                   	leave
c0103678:	c3                   	ret
c0103679:	66 90                	xchg   %ax,%ax
c010367b:	66 90                	xchg   %ax,%ax
c010367d:	66 90                	xchg   %ax,%ax
c010367f:	90                   	nop

c0103680 <_irq0>:
c0103680:	fa                   	cli
c0103681:	6a 00                	push   $0x0
c0103683:	6a 00                	push   $0x0
c0103685:	eb 78                	jmp    c01036ff <irq_stub>
c0103687:	90                   	nop

c0103688 <_irq1>:
c0103688:	fa                   	cli
c0103689:	6a 00                	push   $0x0
c010368b:	6a 01                	push   $0x1
c010368d:	eb 70                	jmp    c01036ff <irq_stub>
c010368f:	90                   	nop

c0103690 <_irq2>:
c0103690:	fa                   	cli
c0103691:	6a 00                	push   $0x0
c0103693:	6a 02                	push   $0x2
c0103695:	eb 68                	jmp    c01036ff <irq_stub>
c0103697:	90                   	nop

c0103698 <_irq3>:
c0103698:	fa                   	cli
c0103699:	6a 00                	push   $0x0
c010369b:	6a 03                	push   $0x3
c010369d:	eb 60                	jmp    c01036ff <irq_stub>
c010369f:	90                   	nop

c01036a0 <_irq4>:
c01036a0:	fa                   	cli
c01036a1:	6a 00                	push   $0x0
c01036a3:	6a 04                	push   $0x4
c01036a5:	eb 58                	jmp    c01036ff <irq_stub>
c01036a7:	90                   	nop

c01036a8 <_irq5>:
c01036a8:	fa                   	cli
c01036a9:	6a 00                	push   $0x0
c01036ab:	6a 05                	push   $0x5
c01036ad:	eb 50                	jmp    c01036ff <irq_stub>
c01036af:	90                   	nop

c01036b0 <_irq6>:
c01036b0:	fa                   	cli
c01036b1:	6a 00                	push   $0x0
c01036b3:	6a 06                	push   $0x6
c01036b5:	eb 48                	jmp    c01036ff <irq_stub>
c01036b7:	90                   	nop

c01036b8 <_irq7>:
c01036b8:	fa                   	cli
c01036b9:	6a 00                	push   $0x0
c01036bb:	6a 07                	push   $0x7
c01036bd:	eb 40                	jmp    c01036ff <irq_stub>
c01036bf:	90                   	nop

c01036c0 <_irq8>:
c01036c0:	fa                   	cli
c01036c1:	6a 00                	push   $0x0
c01036c3:	6a 08                	push   $0x8
c01036c5:	eb 38                	jmp    c01036ff <irq_stub>
c01036c7:	90                   	nop

c01036c8 <_irq9>:
c01036c8:	fa                   	cli
c01036c9:	6a 00                	push   $0x0
c01036cb:	6a 09                	push   $0x9
c01036cd:	eb 30                	jmp    c01036ff <irq_stub>
c01036cf:	90                   	nop

c01036d0 <_irq10>:
c01036d0:	fa                   	cli
c01036d1:	6a 00                	push   $0x0
c01036d3:	6a 0a                	push   $0xa
c01036d5:	eb 28                	jmp    c01036ff <irq_stub>
c01036d7:	90                   	nop

c01036d8 <_irq11>:
c01036d8:	fa                   	cli
c01036d9:	6a 00                	push   $0x0
c01036db:	6a 0b                	push   $0xb
c01036dd:	eb 20                	jmp    c01036ff <irq_stub>
c01036df:	90                   	nop

c01036e0 <_irq12>:
c01036e0:	fa                   	cli
c01036e1:	6a 00                	push   $0x0
c01036e3:	6a 0c                	push   $0xc
c01036e5:	eb 18                	jmp    c01036ff <irq_stub>
c01036e7:	90                   	nop

c01036e8 <_irq13>:
c01036e8:	fa                   	cli
c01036e9:	6a 00                	push   $0x0
c01036eb:	6a 0d                	push   $0xd
c01036ed:	eb 10                	jmp    c01036ff <irq_stub>
c01036ef:	90                   	nop

c01036f0 <_irq14>:
c01036f0:	fa                   	cli
c01036f1:	6a 00                	push   $0x0
c01036f3:	6a 0e                	push   $0xe
c01036f5:	eb 08                	jmp    c01036ff <irq_stub>
c01036f7:	90                   	nop

c01036f8 <_irq15>:
c01036f8:	fa                   	cli
c01036f9:	6a 00                	push   $0x0
c01036fb:	6a 0f                	push   $0xf
c01036fd:	eb 00                	jmp    c01036ff <irq_stub>

c01036ff <irq_stub>:
c01036ff:	60                   	pusha
c0103700:	fc                   	cld
c0103701:	89 e7                	mov    %esp,%edi
c0103703:	57                   	push   %edi
c0103704:	e8 25 ff ff ff       	call   c010362e <__k_int_irq_dispatcher>
c0103709:	5f                   	pop    %edi
c010370a:	89 c4                	mov    %eax,%esp
c010370c:	61                   	popa
c010370d:	83 c4 08             	add    $0x8,%esp
c0103710:	fb                   	sti
c0103711:	cf                   	iret

c0103712 <k_int_pic_eoi>:
c0103712:	55                   	push   %ebp
c0103713:	89 e5                	mov    %esp,%ebp
c0103715:	83 ec 18             	sub    $0x18,%esp
c0103718:	8b 45 08             	mov    0x8(%ebp),%eax
c010371b:	88 45 f4             	mov    %al,-0xc(%ebp)
c010371e:	80 7d f4 07          	cmpb   $0x7,-0xc(%ebp)
c0103722:	76 12                	jbe    c0103736 <k_int_pic_eoi+0x24>
c0103724:	83 ec 08             	sub    $0x8,%esp
c0103727:	6a 20                	push   $0x20
c0103729:	68 a0 00 00 00       	push   $0xa0
c010372e:	e8 ea df ff ff       	call   c010171d <outb>
c0103733:	83 c4 10             	add    $0x10,%esp
c0103736:	83 ec 08             	sub    $0x8,%esp
c0103739:	6a 20                	push   $0x20
c010373b:	6a 20                	push   $0x20
c010373d:	e8 db df ff ff       	call   c010171d <outb>
c0103742:	83 c4 10             	add    $0x10,%esp
c0103745:	90                   	nop
c0103746:	c9                   	leave
c0103747:	c3                   	ret

c0103748 <k_int_pic_init>:
c0103748:	55                   	push   %ebp
c0103749:	89 e5                	mov    %esp,%ebp
c010374b:	83 ec 28             	sub    $0x28,%esp
c010374e:	8b 55 08             	mov    0x8(%ebp),%edx
c0103751:	8b 45 0c             	mov    0xc(%ebp),%eax
c0103754:	88 55 e4             	mov    %dl,-0x1c(%ebp)
c0103757:	88 45 e0             	mov    %al,-0x20(%ebp)
c010375a:	83 ec 0c             	sub    $0xc,%esp
c010375d:	6a 21                	push   $0x21
c010375f:	e8 11 e0 ff ff       	call   c0101775 <inb>
c0103764:	83 c4 10             	add    $0x10,%esp
c0103767:	88 45 f7             	mov    %al,-0x9(%ebp)
c010376a:	83 ec 0c             	sub    $0xc,%esp
c010376d:	68 a1 00 00 00       	push   $0xa1
c0103772:	e8 fe df ff ff       	call   c0101775 <inb>
c0103777:	83 c4 10             	add    $0x10,%esp
c010377a:	88 45 f6             	mov    %al,-0xa(%ebp)
c010377d:	83 ec 08             	sub    $0x8,%esp
c0103780:	6a 11                	push   $0x11
c0103782:	6a 20                	push   $0x20
c0103784:	e8 94 df ff ff       	call   c010171d <outb>
c0103789:	83 c4 10             	add    $0x10,%esp
c010378c:	83 ec 08             	sub    $0x8,%esp
c010378f:	6a 11                	push   $0x11
c0103791:	68 a0 00 00 00       	push   $0xa0
c0103796:	e8 82 df ff ff       	call   c010171d <outb>
c010379b:	83 c4 10             	add    $0x10,%esp
c010379e:	0f b6 45 e4          	movzbl -0x1c(%ebp),%eax
c01037a2:	83 ec 08             	sub    $0x8,%esp
c01037a5:	50                   	push   %eax
c01037a6:	6a 21                	push   $0x21
c01037a8:	e8 70 df ff ff       	call   c010171d <outb>
c01037ad:	83 c4 10             	add    $0x10,%esp
c01037b0:	0f b6 45 e0          	movzbl -0x20(%ebp),%eax
c01037b4:	83 ec 08             	sub    $0x8,%esp
c01037b7:	50                   	push   %eax
c01037b8:	68 a1 00 00 00       	push   $0xa1
c01037bd:	e8 5b df ff ff       	call   c010171d <outb>
c01037c2:	83 c4 10             	add    $0x10,%esp
c01037c5:	83 ec 08             	sub    $0x8,%esp
c01037c8:	6a 04                	push   $0x4
c01037ca:	6a 21                	push   $0x21
c01037cc:	e8 4c df ff ff       	call   c010171d <outb>
c01037d1:	83 c4 10             	add    $0x10,%esp
c01037d4:	83 ec 08             	sub    $0x8,%esp
c01037d7:	6a 02                	push   $0x2
c01037d9:	68 a1 00 00 00       	push   $0xa1
c01037de:	e8 3a df ff ff       	call   c010171d <outb>
c01037e3:	83 c4 10             	add    $0x10,%esp
c01037e6:	83 ec 08             	sub    $0x8,%esp
c01037e9:	6a 01                	push   $0x1
c01037eb:	6a 21                	push   $0x21
c01037ed:	e8 2b df ff ff       	call   c010171d <outb>
c01037f2:	83 c4 10             	add    $0x10,%esp
c01037f5:	83 ec 08             	sub    $0x8,%esp
c01037f8:	6a 01                	push   $0x1
c01037fa:	68 a1 00 00 00       	push   $0xa1
c01037ff:	e8 19 df ff ff       	call   c010171d <outb>
c0103804:	83 c4 10             	add    $0x10,%esp
c0103807:	0f b6 45 f7          	movzbl -0x9(%ebp),%eax
c010380b:	83 ec 08             	sub    $0x8,%esp
c010380e:	50                   	push   %eax
c010380f:	6a 21                	push   $0x21
c0103811:	e8 07 df ff ff       	call   c010171d <outb>
c0103816:	83 c4 10             	add    $0x10,%esp
c0103819:	0f b6 45 f6          	movzbl -0xa(%ebp),%eax
c010381d:	83 ec 08             	sub    $0x8,%esp
c0103820:	50                   	push   %eax
c0103821:	68 a1 00 00 00       	push   $0xa1
c0103826:	e8 f2 de ff ff       	call   c010171d <outb>
c010382b:	83 c4 10             	add    $0x10,%esp
c010382e:	90                   	nop
c010382f:	c9                   	leave
c0103830:	c3                   	ret

c0103831 <k_int_pic_mask_irq>:
c0103831:	55                   	push   %ebp
c0103832:	89 e5                	mov    %esp,%ebp
c0103834:	53                   	push   %ebx
c0103835:	83 ec 24             	sub    $0x24,%esp
c0103838:	8b 45 08             	mov    0x8(%ebp),%eax
c010383b:	88 45 e4             	mov    %al,-0x1c(%ebp)
c010383e:	80 7d e4 07          	cmpb   $0x7,-0x1c(%ebp)
c0103842:	77 08                	ja     c010384c <k_int_pic_mask_irq+0x1b>
c0103844:	66 c7 45 f6 21 00    	movw   $0x21,-0xa(%ebp)
c010384a:	eb 0a                	jmp    c0103856 <k_int_pic_mask_irq+0x25>
c010384c:	66 c7 45 f6 a1 00    	movw   $0xa1,-0xa(%ebp)
c0103852:	80 6d e4 08          	subb   $0x8,-0x1c(%ebp)
c0103856:	0f b7 45 f6          	movzwl -0xa(%ebp),%eax
c010385a:	83 ec 0c             	sub    $0xc,%esp
c010385d:	50                   	push   %eax
c010385e:	e8 12 df ff ff       	call   c0101775 <inb>
c0103863:	83 c4 10             	add    $0x10,%esp
c0103866:	89 c3                	mov    %eax,%ebx
c0103868:	0f b6 45 e4          	movzbl -0x1c(%ebp),%eax
c010386c:	ba 01 00 00 00       	mov    $0x1,%edx
c0103871:	89 c1                	mov    %eax,%ecx
c0103873:	d3 e2                	shl    %cl,%edx
c0103875:	89 d0                	mov    %edx,%eax
c0103877:	09 d8                	or     %ebx,%eax
c0103879:	88 45 f5             	mov    %al,-0xb(%ebp)
c010387c:	0f b6 55 f5          	movzbl -0xb(%ebp),%edx
c0103880:	0f b7 45 f6          	movzwl -0xa(%ebp),%eax
c0103884:	83 ec 08             	sub    $0x8,%esp
c0103887:	52                   	push   %edx
c0103888:	50                   	push   %eax
c0103889:	e8 8f de ff ff       	call   c010171d <outb>
c010388e:	83 c4 10             	add    $0x10,%esp
c0103891:	90                   	nop
c0103892:	8b 5d fc             	mov    -0x4(%ebp),%ebx
c0103895:	c9                   	leave
c0103896:	c3                   	ret

c0103897 <k_int_pic_unmask_irq>:
c0103897:	55                   	push   %ebp
c0103898:	89 e5                	mov    %esp,%ebp
c010389a:	53                   	push   %ebx
c010389b:	83 ec 24             	sub    $0x24,%esp
c010389e:	8b 45 08             	mov    0x8(%ebp),%eax
c01038a1:	88 45 e4             	mov    %al,-0x1c(%ebp)
c01038a4:	80 7d e4 07          	cmpb   $0x7,-0x1c(%ebp)
c01038a8:	77 08                	ja     c01038b2 <k_int_pic_unmask_irq+0x1b>
c01038aa:	66 c7 45 f6 21 00    	movw   $0x21,-0xa(%ebp)
c01038b0:	eb 0a                	jmp    c01038bc <k_int_pic_unmask_irq+0x25>
c01038b2:	66 c7 45 f6 a1 00    	movw   $0xa1,-0xa(%ebp)
c01038b8:	80 6d e4 08          	subb   $0x8,-0x1c(%ebp)
c01038bc:	0f b7 45 f6          	movzwl -0xa(%ebp),%eax
c01038c0:	83 ec 0c             	sub    $0xc,%esp
c01038c3:	50                   	push   %eax
c01038c4:	e8 ac de ff ff       	call   c0101775 <inb>
c01038c9:	83 c4 10             	add    $0x10,%esp
c01038cc:	89 c3                	mov    %eax,%ebx
c01038ce:	0f b6 45 e4          	movzbl -0x1c(%ebp),%eax
c01038d2:	ba 01 00 00 00       	mov    $0x1,%edx
c01038d7:	89 c1                	mov    %eax,%ecx
c01038d9:	d3 e2                	shl    %cl,%edx
c01038db:	89 d0                	mov    %edx,%eax
c01038dd:	f7 d0                	not    %eax
c01038df:	21 d8                	and    %ebx,%eax
c01038e1:	88 45 f5             	mov    %al,-0xb(%ebp)
c01038e4:	0f b6 55 f5          	movzbl -0xb(%ebp),%edx
c01038e8:	0f b7 45 f6          	movzwl -0xa(%ebp),%eax
c01038ec:	83 ec 08             	sub    $0x8,%esp
c01038ef:	52                   	push   %edx
c01038f0:	50                   	push   %eax
c01038f1:	e8 27 de ff ff       	call   c010171d <outb>
c01038f6:	83 c4 10             	add    $0x10,%esp
c01038f9:	90                   	nop
c01038fa:	8b 5d fc             	mov    -0x4(%ebp),%ebx
c01038fd:	c9                   	leave
c01038fe:	c3                   	ret
c01038ff:	90                   	nop

c0103900 <_syscall_stub>:
c0103900:	fa                   	cli
c0103901:	6a 00                	push   $0x0
c0103903:	68 80 00 00 00       	push   $0x80
c0103908:	60                   	pusha
c0103909:	fc                   	cld
c010390a:	89 e7                	mov    %esp,%edi
c010390c:	57                   	push   %edi
c010390d:	e8 09 00 00 00       	call   c010391b <__k_int_syscall_dispatcher>
c0103912:	5f                   	pop    %edi
c0103913:	89 c4                	mov    %eax,%esp
c0103915:	61                   	popa
c0103916:	83 c4 08             	add    $0x8,%esp
c0103919:	fb                   	sti
c010391a:	cf                   	iret

c010391b <__k_int_syscall_dispatcher>:
c010391b:	55                   	push   %ebp
c010391c:	89 e5                	mov    %esp,%ebp
c010391e:	83 ec 08             	sub    $0x8,%esp
c0103921:	83 ec 0c             	sub    $0xc,%esp
c0103924:	68 11 75 10 c0       	push   $0xc0107511
c0103929:	e8 32 e0 ff ff       	call   c0101960 <k_info>
c010392e:	83 c4 10             	add    $0x10,%esp
c0103931:	8b 45 08             	mov    0x8(%ebp),%eax
c0103934:	c9                   	leave
c0103935:	c3                   	ret

c0103936 <k_int_syscall_init>:
c0103936:	55                   	push   %ebp
c0103937:	89 e5                	mov    %esp,%ebp
c0103939:	83 ec 08             	sub    $0x8,%esp
c010393c:	b8 00 39 10 c0       	mov    $0xc0103900,%eax
c0103941:	83 ec 0c             	sub    $0xc,%esp
c0103944:	6a 0e                	push   $0xe
c0103946:	6a 03                	push   $0x3
c0103948:	6a 08                	push   $0x8
c010394a:	50                   	push   %eax
c010394b:	68 80 00 00 00       	push   $0x80
c0103950:	e8 40 f5 ff ff       	call   c0102e95 <k_int_idt_create_entry>
c0103955:	83 c4 20             	add    $0x20,%esp
c0103958:	b8 00 00 00 00       	mov    $0x0,%eax
c010395d:	c9                   	leave
c010395e:	c3                   	ret
c010395f:	90                   	nop

c0103960 <__k_proc_process_save>:
c0103960:	8b 44 24 04          	mov    0x4(%esp),%eax
c0103964:	8b 0c 24             	mov    (%esp),%ecx
c0103967:	89 48 08             	mov    %ecx,0x8(%eax)
c010396a:	89 68 04             	mov    %ebp,0x4(%eax)
c010396d:	89 20                	mov    %esp,(%eax)
c010396f:	31 c0                	xor    %eax,%eax
c0103971:	c3                   	ret

c0103972 <__k_proc_process_load>:
c0103972:	8b 5c 24 04          	mov    0x4(%esp),%ebx
c0103976:	8b 53 0c             	mov    0xc(%ebx),%edx
c0103979:	0f 22 da             	mov    %edx,%cr3
c010397c:	8b 6b 04             	mov    0x4(%ebx),%ebp
c010397f:	8b 23                	mov    (%ebx),%esp
c0103981:	b8 01 00 00 00       	mov    $0x1,%eax
c0103986:	ff 63 08             	jmp    *0x8(%ebx)

c0103989 <__k_proc_process_scheduler_callback>:
c0103989:	55                   	push   %ebp
c010398a:	89 e5                	mov    %esp,%ebp
c010398c:	83 ec 08             	sub    $0x8,%esp
c010398f:	e8 36 02 00 00       	call   c0103bca <k_proc_process_yield>
c0103994:	90                   	nop
c0103995:	c9                   	leave
c0103996:	c3                   	ret

c0103997 <__k_proc_process_idle>:
c0103997:	55                   	push   %ebp
c0103998:	89 e5                	mov    %esp,%ebp
c010399a:	83 ec 08             	sub    $0x8,%esp
c010399d:	83 ec 0c             	sub    $0xc,%esp
c01039a0:	68 1c 75 10 c0       	push   $0xc010751c
c01039a5:	e8 b6 df ff ff       	call   c0101960 <k_info>
c01039aa:	83 c4 10             	add    $0x10,%esp
c01039ad:	e8 18 02 00 00       	call   c0103bca <k_proc_process_yield>
c01039b2:	e8 16 de ff ff       	call   c01017cd <halt>
c01039b7:	90                   	nop
c01039b8:	eb f3                	jmp    c01039ad <__k_proc_process_idle+0x16>

c01039ba <k_proc_process_spawn>:
c01039ba:	55                   	push   %ebp
c01039bb:	89 e5                	mov    %esp,%ebp
c01039bd:	83 ec 08             	sub    $0x8,%esp
c01039c0:	a1 44 bd 10 c0       	mov    0xc010bd44,%eax
c01039c5:	83 c0 01             	add    $0x1,%eax
c01039c8:	a3 44 bd 10 c0       	mov    %eax,0xc010bd44
c01039cd:	a1 44 bd 10 c0       	mov    0xc010bd44,%eax
c01039d2:	83 f8 01             	cmp    $0x1,%eax
c01039d5:	75 17                	jne    c01039ee <k_proc_process_spawn+0x34>
c01039d7:	83 ec 0c             	sub    $0xc,%esp
c01039da:	68 08 01 00 00       	push   $0x108
c01039df:	e8 87 f2 ff ff       	call   c0102c6b <k_mem_heap_alloc>
c01039e4:	83 c4 10             	add    $0x10,%esp
c01039e7:	a3 40 bd 10 c0       	mov    %eax,0xc010bd40
c01039ec:	eb 22                	jmp    c0103a10 <k_proc_process_spawn+0x56>
c01039ee:	a1 44 bd 10 c0       	mov    0xc010bd44,%eax
c01039f3:	69 d0 08 01 00 00    	imul   $0x108,%eax,%edx
c01039f9:	a1 40 bd 10 c0       	mov    0xc010bd40,%eax
c01039fe:	83 ec 08             	sub    $0x8,%esp
c0103a01:	52                   	push   %edx
c0103a02:	50                   	push   %eax
c0103a03:	e8 19 f4 ff ff       	call   c0102e21 <k_mem_heap_realloc>
c0103a08:	83 c4 10             	add    $0x10,%esp
c0103a0b:	a3 40 bd 10 c0       	mov    %eax,0xc010bd40
c0103a10:	8b 15 44 bd 10 c0    	mov    0xc010bd44,%edx
c0103a16:	8b 45 08             	mov    0x8(%ebp),%eax
c0103a19:	89 90 00 01 00 00    	mov    %edx,0x100(%eax)
c0103a1f:	a1 40 bd 10 c0       	mov    0xc010bd40,%eax
c0103a24:	8b 15 44 bd 10 c0    	mov    0xc010bd44,%edx
c0103a2a:	81 c2 ff ff ff 3f    	add    $0x3fffffff,%edx
c0103a30:	c1 e2 02             	shl    $0x2,%edx
c0103a33:	01 c2                	add    %eax,%edx
c0103a35:	8b 45 08             	mov    0x8(%ebp),%eax
c0103a38:	89 02                	mov    %eax,(%edx)
c0103a3a:	90                   	nop
c0103a3b:	c9                   	leave
c0103a3c:	c3                   	ret

c0103a3d <__k_proc_process_create_init>:
c0103a3d:	55                   	push   %ebp
c0103a3e:	89 e5                	mov    %esp,%ebp
c0103a40:	53                   	push   %ebx
c0103a41:	83 ec 14             	sub    $0x14,%esp
c0103a44:	83 ec 0c             	sub    $0xc,%esp
c0103a47:	68 08 01 00 00       	push   $0x108
c0103a4c:	e8 1a f2 ff ff       	call   c0102c6b <k_mem_heap_alloc>
c0103a51:	83 c4 10             	add    $0x10,%esp
c0103a54:	89 45 f4             	mov    %eax,-0xc(%ebp)
c0103a57:	8b 45 f4             	mov    -0xc(%ebp),%eax
c0103a5a:	83 ec 08             	sub    $0x8,%esp
c0103a5d:	68 21 75 10 c0       	push   $0xc0107521
c0103a62:	50                   	push   %eax
c0103a63:	e8 05 30 00 00       	call   c0106a6d <strcpy>
c0103a68:	83 c4 10             	add    $0x10,%esp
c0103a6b:	83 ec 0c             	sub    $0xc,%esp
c0103a6e:	6a 10                	push   $0x10
c0103a70:	e8 f6 f1 ff ff       	call   c0102c6b <k_mem_heap_alloc>
c0103a75:	83 c4 10             	add    $0x10,%esp
c0103a78:	8b 55 f4             	mov    -0xc(%ebp),%edx
c0103a7b:	89 82 04 01 00 00    	mov    %eax,0x104(%edx)
c0103a81:	8b 45 f4             	mov    -0xc(%ebp),%eax
c0103a84:	8b 80 04 01 00 00    	mov    0x104(%eax),%eax
c0103a8a:	c7 00 00 00 00 00    	movl   $0x0,(%eax)
c0103a90:	8b 45 f4             	mov    -0xc(%ebp),%eax
c0103a93:	8b 80 04 01 00 00    	mov    0x104(%eax),%eax
c0103a99:	c7 40 04 00 00 00 00 	movl   $0x0,0x4(%eax)
c0103aa0:	8b 45 f4             	mov    -0xc(%ebp),%eax
c0103aa3:	8b 80 04 01 00 00    	mov    0x104(%eax),%eax
c0103aa9:	c7 40 08 00 00 00 00 	movl   $0x0,0x8(%eax)
c0103ab0:	8b 45 f4             	mov    -0xc(%ebp),%eax
c0103ab3:	8b 98 04 01 00 00    	mov    0x104(%eax),%ebx
c0103ab9:	e8 f2 e6 ff ff       	call   c01021b0 <k_mem_paging_get_pd>
c0103abe:	89 43 0c             	mov    %eax,0xc(%ebx)
c0103ac1:	83 ec 0c             	sub    $0xc,%esp
c0103ac4:	ff 75 f4             	push   -0xc(%ebp)
c0103ac7:	e8 ee fe ff ff       	call   c01039ba <k_proc_process_spawn>
c0103acc:	83 c4 10             	add    $0x10,%esp
c0103acf:	90                   	nop
c0103ad0:	8b 5d fc             	mov    -0x4(%ebp),%ebx
c0103ad3:	c9                   	leave
c0103ad4:	c3                   	ret

c0103ad5 <__k_proc_process_create_idle>:
c0103ad5:	55                   	push   %ebp
c0103ad6:	89 e5                	mov    %esp,%ebp
c0103ad8:	53                   	push   %ebx
c0103ad9:	83 ec 14             	sub    $0x14,%esp
c0103adc:	83 ec 0c             	sub    $0xc,%esp
c0103adf:	68 08 01 00 00       	push   $0x108
c0103ae4:	e8 82 f1 ff ff       	call   c0102c6b <k_mem_heap_alloc>
c0103ae9:	83 c4 10             	add    $0x10,%esp
c0103aec:	89 45 f4             	mov    %eax,-0xc(%ebp)
c0103aef:	8b 45 f4             	mov    -0xc(%ebp),%eax
c0103af2:	83 ec 08             	sub    $0x8,%esp
c0103af5:	68 28 75 10 c0       	push   $0xc0107528
c0103afa:	50                   	push   %eax
c0103afb:	e8 6d 2f 00 00       	call   c0106a6d <strcpy>
c0103b00:	83 c4 10             	add    $0x10,%esp
c0103b03:	83 ec 0c             	sub    $0xc,%esp
c0103b06:	6a 10                	push   $0x10
c0103b08:	e8 5e f1 ff ff       	call   c0102c6b <k_mem_heap_alloc>
c0103b0d:	83 c4 10             	add    $0x10,%esp
c0103b10:	8b 55 f4             	mov    -0xc(%ebp),%edx
c0103b13:	89 82 04 01 00 00    	mov    %eax,0x104(%edx)
c0103b19:	83 ec 0c             	sub    $0xc,%esp
c0103b1c:	68 00 10 00 00       	push   $0x1000
c0103b21:	e8 45 f1 ff ff       	call   c0102c6b <k_mem_heap_alloc>
c0103b26:	83 c4 10             	add    $0x10,%esp
c0103b29:	89 c2                	mov    %eax,%edx
c0103b2b:	8b 45 f4             	mov    -0xc(%ebp),%eax
c0103b2e:	8b 80 04 01 00 00    	mov    0x104(%eax),%eax
c0103b34:	81 c2 00 10 00 00    	add    $0x1000,%edx
c0103b3a:	89 10                	mov    %edx,(%eax)
c0103b3c:	8b 45 f4             	mov    -0xc(%ebp),%eax
c0103b3f:	8b 90 04 01 00 00    	mov    0x104(%eax),%edx
c0103b45:	8b 45 f4             	mov    -0xc(%ebp),%eax
c0103b48:	8b 80 04 01 00 00    	mov    0x104(%eax),%eax
c0103b4e:	8b 12                	mov    (%edx),%edx
c0103b50:	89 50 04             	mov    %edx,0x4(%eax)
c0103b53:	8b 45 f4             	mov    -0xc(%ebp),%eax
c0103b56:	8b 80 04 01 00 00    	mov    0x104(%eax),%eax
c0103b5c:	ba 97 39 10 c0       	mov    $0xc0103997,%edx
c0103b61:	89 50 08             	mov    %edx,0x8(%eax)
c0103b64:	8b 45 f4             	mov    -0xc(%ebp),%eax
c0103b67:	8b 98 04 01 00 00    	mov    0x104(%eax),%ebx
c0103b6d:	e8 3e e6 ff ff       	call   c01021b0 <k_mem_paging_get_pd>
c0103b72:	89 43 0c             	mov    %eax,0xc(%ebx)
c0103b75:	83 ec 0c             	sub    $0xc,%esp
c0103b78:	ff 75 f4             	push   -0xc(%ebp)
c0103b7b:	e8 3a fe ff ff       	call   c01039ba <k_proc_process_spawn>
c0103b80:	83 c4 10             	add    $0x10,%esp
c0103b83:	90                   	nop
c0103b84:	8b 5d fc             	mov    -0x4(%ebp),%ebx
c0103b87:	c9                   	leave
c0103b88:	c3                   	ret

c0103b89 <k_proc_process_init>:
c0103b89:	55                   	push   %ebp
c0103b8a:	89 e5                	mov    %esp,%ebp
c0103b8c:	83 ec 08             	sub    $0x8,%esp
c0103b8f:	e8 40 dc ff ff       	call   c01017d4 <cli>
c0103b94:	c7 05 44 bd 10 c0 00 	movl   $0x0,0xc010bd44
c0103b9b:	00 00 00 
c0103b9e:	c7 05 48 bd 10 c0 00 	movl   $0x0,0xc010bd48
c0103ba5:	00 00 00 
c0103ba8:	83 ec 0c             	sub    $0xc,%esp
c0103bab:	68 89 39 10 c0       	push   $0xc0103989
c0103bb0:	e8 71 d9 ff ff       	call   c0101526 <k_dev_timer_add_callback>
c0103bb5:	83 c4 10             	add    $0x10,%esp
c0103bb8:	e8 80 fe ff ff       	call   c0103a3d <__k_proc_process_create_init>
c0103bbd:	e8 13 ff ff ff       	call   c0103ad5 <__k_proc_process_create_idle>
c0103bc2:	e8 14 dc ff ff       	call   c01017db <sti>
c0103bc7:	90                   	nop
c0103bc8:	c9                   	leave
c0103bc9:	c3                   	ret

c0103bca <k_proc_process_yield>:
c0103bca:	55                   	push   %ebp
c0103bcb:	89 e5                	mov    %esp,%ebp
c0103bcd:	57                   	push   %edi
c0103bce:	56                   	push   %esi
c0103bcf:	53                   	push   %ebx
c0103bd0:	83 ec 1c             	sub    $0x1c,%esp
c0103bd3:	a1 44 bd 10 c0       	mov    0xc010bd44,%eax
c0103bd8:	85 c0                	test   %eax,%eax
c0103bda:	0f 84 d1 00 00 00    	je     c0103cb1 <k_proc_process_yield+0xe7>
c0103be0:	a1 48 bd 10 c0       	mov    0xc010bd48,%eax
c0103be5:	89 45 e4             	mov    %eax,-0x1c(%ebp)
c0103be8:	a1 48 bd 10 c0       	mov    0xc010bd48,%eax
c0103bed:	83 c0 01             	add    $0x1,%eax
c0103bf0:	a3 48 bd 10 c0       	mov    %eax,0xc010bd48
c0103bf5:	8b 15 48 bd 10 c0    	mov    0xc010bd48,%edx
c0103bfb:	a1 44 bd 10 c0       	mov    0xc010bd44,%eax
c0103c00:	39 c2                	cmp    %eax,%edx
c0103c02:	72 0a                	jb     c0103c0e <k_proc_process_yield+0x44>
c0103c04:	c7 05 48 bd 10 c0 00 	movl   $0x0,0xc010bd48
c0103c0b:	00 00 00 
c0103c0e:	a1 40 bd 10 c0       	mov    0xc010bd40,%eax
c0103c13:	8b 55 e4             	mov    -0x1c(%ebp),%edx
c0103c16:	c1 e2 02             	shl    $0x2,%edx
c0103c19:	01 d0                	add    %edx,%eax
c0103c1b:	8b 00                	mov    (%eax),%eax
c0103c1d:	89 45 e0             	mov    %eax,-0x20(%ebp)
c0103c20:	a1 40 bd 10 c0       	mov    0xc010bd40,%eax
c0103c25:	8b 15 48 bd 10 c0    	mov    0xc010bd48,%edx
c0103c2b:	c1 e2 02             	shl    $0x2,%edx
c0103c2e:	01 d0                	add    %edx,%eax
c0103c30:	8b 00                	mov    (%eax),%eax
c0103c32:	89 45 dc             	mov    %eax,-0x24(%ebp)
c0103c35:	8b 45 dc             	mov    -0x24(%ebp),%eax
c0103c38:	8b b8 04 01 00 00    	mov    0x104(%eax),%edi
c0103c3e:	8b 75 dc             	mov    -0x24(%ebp),%esi
c0103c41:	8b 45 dc             	mov    -0x24(%ebp),%eax
c0103c44:	8b 98 00 01 00 00    	mov    0x100(%eax),%ebx
c0103c4a:	8b 45 e0             	mov    -0x20(%ebp),%eax
c0103c4d:	8b 88 04 01 00 00    	mov    0x104(%eax),%ecx
c0103c53:	8b 55 e0             	mov    -0x20(%ebp),%edx
c0103c56:	8b 45 e0             	mov    -0x20(%ebp),%eax
c0103c59:	8b 80 00 01 00 00    	mov    0x100(%eax),%eax
c0103c5f:	83 ec 04             	sub    $0x4,%esp
c0103c62:	57                   	push   %edi
c0103c63:	56                   	push   %esi
c0103c64:	53                   	push   %ebx
c0103c65:	51                   	push   %ecx
c0103c66:	52                   	push   %edx
c0103c67:	50                   	push   %eax
c0103c68:	68 30 75 10 c0       	push   $0xc0107530
c0103c6d:	e8 60 dd ff ff       	call   c01019d2 <k_debug>
c0103c72:	83 c4 20             	add    $0x20,%esp
c0103c75:	8b 45 e0             	mov    -0x20(%ebp),%eax
c0103c78:	8b 80 00 01 00 00    	mov    0x100(%eax),%eax
c0103c7e:	83 f8 02             	cmp    $0x2,%eax
c0103c81:	74 19                	je     c0103c9c <k_proc_process_yield+0xd2>
c0103c83:	8b 45 e0             	mov    -0x20(%ebp),%eax
c0103c86:	8b 80 04 01 00 00    	mov    0x104(%eax),%eax
c0103c8c:	83 ec 0c             	sub    $0xc,%esp
c0103c8f:	50                   	push   %eax
c0103c90:	e8 cb fc ff ff       	call   c0103960 <__k_proc_process_save>
c0103c95:	83 c4 10             	add    $0x10,%esp
c0103c98:	84 c0                	test   %al,%al
c0103c9a:	75 18                	jne    c0103cb4 <k_proc_process_yield+0xea>
c0103c9c:	8b 45 dc             	mov    -0x24(%ebp),%eax
c0103c9f:	8b 80 04 01 00 00    	mov    0x104(%eax),%eax
c0103ca5:	83 ec 0c             	sub    $0xc,%esp
c0103ca8:	50                   	push   %eax
c0103ca9:	e8 c4 fc ff ff       	call   c0103972 <__k_proc_process_load>
c0103cae:	83 c4 10             	add    $0x10,%esp
c0103cb1:	90                   	nop
c0103cb2:	eb 01                	jmp    c0103cb5 <k_proc_process_yield+0xeb>
c0103cb4:	90                   	nop
c0103cb5:	8d 65 f4             	lea    -0xc(%ebp),%esp
c0103cb8:	5b                   	pop    %ebx
c0103cb9:	5e                   	pop    %esi
c0103cba:	5f                   	pop    %edi
c0103cbb:	5d                   	pop    %ebp
c0103cbc:	c3                   	ret

c0103cbd <__k_fs_vfs_root_entry>:
c0103cbd:	55                   	push   %ebp
c0103cbe:	89 e5                	mov    %esp,%ebp
c0103cc0:	a1 50 bd 10 c0       	mov    0xc010bd50,%eax
c0103cc5:	8b 00                	mov    (%eax),%eax
c0103cc7:	8b 40 10             	mov    0x10(%eax),%eax
c0103cca:	5d                   	pop    %ebp
c0103ccb:	c3                   	ret

c0103ccc <__k_fs_vfs_root_node>:
c0103ccc:	55                   	push   %ebp
c0103ccd:	89 e5                	mov    %esp,%ebp
c0103ccf:	e8 e9 ff ff ff       	call   c0103cbd <__k_fs_vfs_root_entry>
c0103cd4:	8b 80 00 01 00 00    	mov    0x100(%eax),%eax
c0103cda:	5d                   	pop    %ebp
c0103cdb:	c3                   	ret

c0103cdc <__k_fs_vfs_find_node>:
c0103cdc:	55                   	push   %ebp
c0103cdd:	89 e5                	mov    %esp,%ebp
c0103cdf:	83 ec 38             	sub    $0x38,%esp
c0103ce2:	a1 50 bd 10 c0       	mov    0xc010bd50,%eax
c0103ce7:	8b 00                	mov    (%eax),%eax
c0103ce9:	89 45 f4             	mov    %eax,-0xc(%ebp)
c0103cec:	83 ec 0c             	sub    $0xc,%esp
c0103cef:	ff 75 08             	push   0x8(%ebp)
c0103cf2:	e8 60 dd ff ff       	call   c0101a57 <k_util_path_length>
c0103cf7:	83 c4 10             	add    $0x10,%esp
c0103cfa:	89 45 e0             	mov    %eax,-0x20(%ebp)
c0103cfd:	c7 45 f0 00 00 00 00 	movl   $0x0,-0x10(%ebp)
c0103d04:	e9 3d 01 00 00       	jmp    c0103e46 <__k_fs_vfs_find_node+0x16a>
c0103d09:	83 ec 08             	sub    $0x8,%esp
c0103d0c:	ff 75 f0             	push   -0x10(%ebp)
c0103d0f:	ff 75 08             	push   0x8(%ebp)
c0103d12:	e8 a7 dd ff ff       	call   c0101abe <k_util_path_segment>
c0103d17:	83 c4 10             	add    $0x10,%esp
c0103d1a:	89 45 dc             	mov    %eax,-0x24(%ebp)
c0103d1d:	c6 45 ef 00          	movb   $0x0,-0x11(%ebp)
c0103d21:	c7 45 e8 00 00 00 00 	movl   $0x0,-0x18(%ebp)
c0103d28:	eb 49                	jmp    c0103d73 <__k_fs_vfs_find_node+0x97>
c0103d2a:	8b 45 f4             	mov    -0xc(%ebp),%eax
c0103d2d:	8b 40 08             	mov    0x8(%eax),%eax
c0103d30:	8b 55 e8             	mov    -0x18(%ebp),%edx
c0103d33:	c1 e2 02             	shl    $0x2,%edx
c0103d36:	01 d0                	add    %edx,%eax
c0103d38:	8b 00                	mov    (%eax),%eax
c0103d3a:	8b 40 10             	mov    0x10(%eax),%eax
c0103d3d:	89 45 d8             	mov    %eax,-0x28(%ebp)
c0103d40:	8b 45 d8             	mov    -0x28(%ebp),%eax
c0103d43:	83 ec 08             	sub    $0x8,%esp
c0103d46:	ff 75 dc             	push   -0x24(%ebp)
c0103d49:	50                   	push   %eax
c0103d4a:	e8 5e 2e 00 00       	call   c0106bad <strcmp>
c0103d4f:	83 c4 10             	add    $0x10,%esp
c0103d52:	85 c0                	test   %eax,%eax
c0103d54:	75 19                	jne    c0103d6f <__k_fs_vfs_find_node+0x93>
c0103d56:	8b 45 f4             	mov    -0xc(%ebp),%eax
c0103d59:	8b 40 08             	mov    0x8(%eax),%eax
c0103d5c:	8b 55 e8             	mov    -0x18(%ebp),%edx
c0103d5f:	c1 e2 02             	shl    $0x2,%edx
c0103d62:	01 d0                	add    %edx,%eax
c0103d64:	8b 00                	mov    (%eax),%eax
c0103d66:	89 45 f4             	mov    %eax,-0xc(%ebp)
c0103d69:	c6 45 ef 01          	movb   $0x1,-0x11(%ebp)
c0103d6d:	eb 0f                	jmp    c0103d7e <__k_fs_vfs_find_node+0xa2>
c0103d6f:	83 45 e8 01          	addl   $0x1,-0x18(%ebp)
c0103d73:	8b 45 f4             	mov    -0xc(%ebp),%eax
c0103d76:	8b 40 0c             	mov    0xc(%eax),%eax
c0103d79:	39 45 e8             	cmp    %eax,-0x18(%ebp)
c0103d7c:	72 ac                	jb     c0103d2a <__k_fs_vfs_find_node+0x4e>
c0103d7e:	80 7d ef 00          	cmpb   $0x0,-0x11(%ebp)
c0103d82:	0f 85 ac 00 00 00    	jne    c0103e34 <__k_fs_vfs_find_node+0x158>
c0103d88:	8b 45 f4             	mov    -0xc(%ebp),%eax
c0103d8b:	8b 40 10             	mov    0x10(%eax),%eax
c0103d8e:	8b 80 00 01 00 00    	mov    0x100(%eax),%eax
c0103d94:	89 45 e4             	mov    %eax,-0x1c(%ebp)
c0103d97:	8b 45 e4             	mov    -0x1c(%ebp),%eax
c0103d9a:	83 ec 08             	sub    $0x8,%esp
c0103d9d:	ff 75 dc             	push   -0x24(%ebp)
c0103da0:	50                   	push   %eax
c0103da1:	e8 07 2e 00 00       	call   c0106bad <strcmp>
c0103da6:	83 c4 10             	add    $0x10,%esp
c0103da9:	85 c0                	test   %eax,%eax
c0103dab:	74 18                	je     c0103dc5 <__k_fs_vfs_find_node+0xe9>
c0103dad:	83 ec 0c             	sub    $0xc,%esp
c0103db0:	ff 75 dc             	push   -0x24(%ebp)
c0103db3:	e8 23 f0 ff ff       	call   c0102ddb <k_mem_heap_free>
c0103db8:	83 c4 10             	add    $0x10,%esp
c0103dbb:	b8 00 00 00 00       	mov    $0x0,%eax
c0103dc0:	e9 99 00 00 00       	jmp    c0103e5e <__k_fs_vfs_find_node+0x182>
c0103dc5:	83 45 f0 01          	addl   $0x1,-0x10(%ebp)
c0103dc9:	eb 56                	jmp    c0103e21 <__k_fs_vfs_find_node+0x145>
c0103dcb:	83 ec 0c             	sub    $0xc,%esp
c0103dce:	ff 75 dc             	push   -0x24(%ebp)
c0103dd1:	e8 05 f0 ff ff       	call   c0102ddb <k_mem_heap_free>
c0103dd6:	83 c4 10             	add    $0x10,%esp
c0103dd9:	83 ec 08             	sub    $0x8,%esp
c0103ddc:	ff 75 f0             	push   -0x10(%ebp)
c0103ddf:	ff 75 08             	push   0x8(%ebp)
c0103de2:	e8 d7 dc ff ff       	call   c0101abe <k_util_path_segment>
c0103de7:	83 c4 10             	add    $0x10,%esp
c0103dea:	89 45 d4             	mov    %eax,-0x2c(%ebp)
c0103ded:	8b 45 e4             	mov    -0x1c(%ebp),%eax
c0103df0:	89 45 d0             	mov    %eax,-0x30(%ebp)
c0103df3:	83 ec 08             	sub    $0x8,%esp
c0103df6:	ff 75 d4             	push   -0x2c(%ebp)
c0103df9:	ff 75 e4             	push   -0x1c(%ebp)
c0103dfc:	e8 ee 04 00 00       	call   c01042ef <k_fs_vfs_finddir>
c0103e01:	83 c4 10             	add    $0x10,%esp
c0103e04:	89 45 e4             	mov    %eax,-0x1c(%ebp)
c0103e07:	8b 45 e4             	mov    -0x1c(%ebp),%eax
c0103e0a:	3b 45 d0             	cmp    -0x30(%ebp),%eax
c0103e0d:	74 0e                	je     c0103e1d <__k_fs_vfs_find_node+0x141>
c0103e0f:	83 ec 0c             	sub    $0xc,%esp
c0103e12:	ff 75 d0             	push   -0x30(%ebp)
c0103e15:	e8 c1 ef ff ff       	call   c0102ddb <k_mem_heap_free>
c0103e1a:	83 c4 10             	add    $0x10,%esp
c0103e1d:	83 45 f0 01          	addl   $0x1,-0x10(%ebp)
c0103e21:	8b 45 f0             	mov    -0x10(%ebp),%eax
c0103e24:	3b 45 e0             	cmp    -0x20(%ebp),%eax
c0103e27:	73 06                	jae    c0103e2f <__k_fs_vfs_find_node+0x153>
c0103e29:	83 7d e4 00          	cmpl   $0x0,-0x1c(%ebp)
c0103e2d:	75 9c                	jne    c0103dcb <__k_fs_vfs_find_node+0xef>
c0103e2f:	8b 45 e4             	mov    -0x1c(%ebp),%eax
c0103e32:	eb 2a                	jmp    c0103e5e <__k_fs_vfs_find_node+0x182>
c0103e34:	83 ec 0c             	sub    $0xc,%esp
c0103e37:	ff 75 dc             	push   -0x24(%ebp)
c0103e3a:	e8 9c ef ff ff       	call   c0102ddb <k_mem_heap_free>
c0103e3f:	83 c4 10             	add    $0x10,%esp
c0103e42:	83 45 f0 01          	addl   $0x1,-0x10(%ebp)
c0103e46:	8b 45 f0             	mov    -0x10(%ebp),%eax
c0103e49:	3b 45 e0             	cmp    -0x20(%ebp),%eax
c0103e4c:	0f 82 b7 fe ff ff    	jb     c0103d09 <__k_fs_vfs_find_node+0x2d>
c0103e52:	8b 45 f4             	mov    -0xc(%ebp),%eax
c0103e55:	8b 40 10             	mov    0x10(%eax),%eax
c0103e58:	8b 80 00 01 00 00    	mov    0x100(%eax),%eax
c0103e5e:	c9                   	leave
c0103e5f:	c3                   	ret

c0103e60 <__k_fs_vfs_get_entry>:
c0103e60:	55                   	push   %ebp
c0103e61:	89 e5                	mov    %esp,%ebp
c0103e63:	81 ec 38 10 00 00    	sub    $0x1038,%esp
c0103e69:	8b 45 0c             	mov    0xc(%ebp),%eax
c0103e6c:	88 85 d4 ef ff ff    	mov    %al,-0x102c(%ebp)
c0103e72:	a1 50 bd 10 c0       	mov    0xc010bd50,%eax
c0103e77:	8b 00                	mov    (%eax),%eax
c0103e79:	89 45 f4             	mov    %eax,-0xc(%ebp)
c0103e7c:	83 ec 04             	sub    $0x4,%esp
c0103e7f:	68 00 10 00 00       	push   $0x1000
c0103e84:	6a 00                	push   $0x0
c0103e86:	8d 85 dc ef ff ff    	lea    -0x1024(%ebp),%eax
c0103e8c:	50                   	push   %eax
c0103e8d:	e8 9d 2a 00 00       	call   c010692f <memset>
c0103e92:	83 c4 10             	add    $0x10,%esp
c0103e95:	83 ec 08             	sub    $0x8,%esp
c0103e98:	ff 75 08             	push   0x8(%ebp)
c0103e9b:	8d 85 dc ef ff ff    	lea    -0x1024(%ebp),%eax
c0103ea1:	50                   	push   %eax
c0103ea2:	e8 c6 2b 00 00       	call   c0106a6d <strcpy>
c0103ea7:	83 c4 10             	add    $0x10,%esp
c0103eaa:	83 ec 08             	sub    $0x8,%esp
c0103ead:	68 64 75 10 c0       	push   $0xc0107564
c0103eb2:	8d 85 dc ef ff ff    	lea    -0x1024(%ebp),%eax
c0103eb8:	50                   	push   %eax
c0103eb9:	e8 44 2c 00 00       	call   c0106b02 <strtok>
c0103ebe:	83 c4 10             	add    $0x10,%esp
c0103ec1:	89 45 f0             	mov    %eax,-0x10(%ebp)
c0103ec4:	e9 cb 00 00 00       	jmp    c0103f94 <__k_fs_vfs_get_entry+0x134>
c0103ec9:	c6 45 ef 00          	movb   $0x0,-0x11(%ebp)
c0103ecd:	c7 45 e8 00 00 00 00 	movl   $0x0,-0x18(%ebp)
c0103ed4:	eb 49                	jmp    c0103f1f <__k_fs_vfs_get_entry+0xbf>
c0103ed6:	8b 45 f4             	mov    -0xc(%ebp),%eax
c0103ed9:	8b 40 08             	mov    0x8(%eax),%eax
c0103edc:	8b 55 e8             	mov    -0x18(%ebp),%edx
c0103edf:	c1 e2 02             	shl    $0x2,%edx
c0103ee2:	01 d0                	add    %edx,%eax
c0103ee4:	8b 00                	mov    (%eax),%eax
c0103ee6:	8b 40 10             	mov    0x10(%eax),%eax
c0103ee9:	89 45 e4             	mov    %eax,-0x1c(%ebp)
c0103eec:	8b 45 e4             	mov    -0x1c(%ebp),%eax
c0103eef:	83 ec 08             	sub    $0x8,%esp
c0103ef2:	ff 75 f0             	push   -0x10(%ebp)
c0103ef5:	50                   	push   %eax
c0103ef6:	e8 b2 2c 00 00       	call   c0106bad <strcmp>
c0103efb:	83 c4 10             	add    $0x10,%esp
c0103efe:	85 c0                	test   %eax,%eax
c0103f00:	75 19                	jne    c0103f1b <__k_fs_vfs_get_entry+0xbb>
c0103f02:	8b 45 f4             	mov    -0xc(%ebp),%eax
c0103f05:	8b 40 08             	mov    0x8(%eax),%eax
c0103f08:	8b 55 e8             	mov    -0x18(%ebp),%edx
c0103f0b:	c1 e2 02             	shl    $0x2,%edx
c0103f0e:	01 d0                	add    %edx,%eax
c0103f10:	8b 00                	mov    (%eax),%eax
c0103f12:	89 45 f4             	mov    %eax,-0xc(%ebp)
c0103f15:	c6 45 ef 01          	movb   $0x1,-0x11(%ebp)
c0103f19:	eb 0f                	jmp    c0103f2a <__k_fs_vfs_get_entry+0xca>
c0103f1b:	83 45 e8 01          	addl   $0x1,-0x18(%ebp)
c0103f1f:	8b 45 f4             	mov    -0xc(%ebp),%eax
c0103f22:	8b 40 0c             	mov    0xc(%eax),%eax
c0103f25:	39 45 e8             	cmp    %eax,-0x18(%ebp)
c0103f28:	72 ac                	jb     c0103ed6 <__k_fs_vfs_get_entry+0x76>
c0103f2a:	80 7d ef 00          	cmpb   $0x0,-0x11(%ebp)
c0103f2e:	75 4f                	jne    c0103f7f <__k_fs_vfs_get_entry+0x11f>
c0103f30:	80 bd d4 ef ff ff 00 	cmpb   $0x0,-0x102c(%ebp)
c0103f37:	75 07                	jne    c0103f40 <__k_fs_vfs_get_entry+0xe0>
c0103f39:	b8 00 00 00 00       	mov    $0x0,%eax
c0103f3e:	eb 64                	jmp    c0103fa4 <__k_fs_vfs_get_entry+0x144>
c0103f40:	83 ec 0c             	sub    $0xc,%esp
c0103f43:	ff 75 f0             	push   -0x10(%ebp)
c0103f46:	e8 c6 01 00 00       	call   c0104111 <k_fs_vfs_create_entry>
c0103f4b:	83 c4 10             	add    $0x10,%esp
c0103f4e:	89 45 e0             	mov    %eax,-0x20(%ebp)
c0103f51:	83 ec 0c             	sub    $0xc,%esp
c0103f54:	ff 75 e0             	push   -0x20(%ebp)
c0103f57:	e8 a2 dd ff ff       	call   c0101cfe <tree_create_node>
c0103f5c:	83 c4 10             	add    $0x10,%esp
c0103f5f:	89 45 dc             	mov    %eax,-0x24(%ebp)
c0103f62:	a1 50 bd 10 c0       	mov    0xc010bd50,%eax
c0103f67:	83 ec 04             	sub    $0x4,%esp
c0103f6a:	ff 75 f4             	push   -0xc(%ebp)
c0103f6d:	ff 75 dc             	push   -0x24(%ebp)
c0103f70:	50                   	push   %eax
c0103f71:	e8 59 de ff ff       	call   c0101dcf <tree_insert_node>
c0103f76:	83 c4 10             	add    $0x10,%esp
c0103f79:	8b 45 dc             	mov    -0x24(%ebp),%eax
c0103f7c:	89 45 f4             	mov    %eax,-0xc(%ebp)
c0103f7f:	83 ec 08             	sub    $0x8,%esp
c0103f82:	68 64 75 10 c0       	push   $0xc0107564
c0103f87:	6a 00                	push   $0x0
c0103f89:	e8 74 2b 00 00       	call   c0106b02 <strtok>
c0103f8e:	83 c4 10             	add    $0x10,%esp
c0103f91:	89 45 f0             	mov    %eax,-0x10(%ebp)
c0103f94:	83 7d f0 00          	cmpl   $0x0,-0x10(%ebp)
c0103f98:	0f 85 2b ff ff ff    	jne    c0103ec9 <__k_fs_vfs_get_entry+0x69>
c0103f9e:	8b 45 f4             	mov    -0xc(%ebp),%eax
c0103fa1:	8b 40 10             	mov    0x10(%eax),%eax
c0103fa4:	c9                   	leave
c0103fa5:	c3                   	ret

c0103fa6 <k_fs_vfs_register_fs>:
c0103fa6:	55                   	push   %ebp
c0103fa7:	89 e5                	mov    %esp,%ebp
c0103fa9:	83 ec 08             	sub    $0x8,%esp
c0103fac:	a1 4c bd 10 c0       	mov    0xc010bd4c,%eax
c0103fb1:	83 c0 01             	add    $0x1,%eax
c0103fb4:	a3 4c bd 10 c0       	mov    %eax,0xc010bd4c
c0103fb9:	a1 4c bd 10 c0       	mov    0xc010bd4c,%eax
c0103fbe:	83 f8 01             	cmp    $0x1,%eax
c0103fc1:	75 17                	jne    c0103fda <k_fs_vfs_register_fs+0x34>
c0103fc3:	83 ec 0c             	sub    $0xc,%esp
c0103fc6:	68 84 00 00 00       	push   $0x84
c0103fcb:	e8 9b ec ff ff       	call   c0102c6b <k_mem_heap_alloc>
c0103fd0:	83 c4 10             	add    $0x10,%esp
c0103fd3:	a3 54 bd 10 c0       	mov    %eax,0xc010bd54
c0103fd8:	eb 22                	jmp    c0103ffc <k_fs_vfs_register_fs+0x56>
c0103fda:	a1 4c bd 10 c0       	mov    0xc010bd4c,%eax
c0103fdf:	69 d0 84 00 00 00    	imul   $0x84,%eax,%edx
c0103fe5:	a1 54 bd 10 c0       	mov    0xc010bd54,%eax
c0103fea:	83 ec 08             	sub    $0x8,%esp
c0103fed:	52                   	push   %edx
c0103fee:	50                   	push   %eax
c0103fef:	e8 2d ee ff ff       	call   c0102e21 <k_mem_heap_realloc>
c0103ff4:	83 c4 10             	add    $0x10,%esp
c0103ff7:	a3 54 bd 10 c0       	mov    %eax,0xc010bd54
c0103ffc:	a1 54 bd 10 c0       	mov    0xc010bd54,%eax
c0104001:	8b 15 4c bd 10 c0    	mov    0xc010bd4c,%edx
c0104007:	69 d2 84 00 00 00    	imul   $0x84,%edx,%edx
c010400d:	81 ea 84 00 00 00    	sub    $0x84,%edx
c0104013:	01 d0                	add    %edx,%eax
c0104015:	83 ec 08             	sub    $0x8,%esp
c0104018:	ff 75 08             	push   0x8(%ebp)
c010401b:	50                   	push   %eax
c010401c:	e8 4c 2a 00 00       	call   c0106a6d <strcpy>
c0104021:	83 c4 10             	add    $0x10,%esp
c0104024:	a1 54 bd 10 c0       	mov    0xc010bd54,%eax
c0104029:	8b 15 4c bd 10 c0    	mov    0xc010bd4c,%edx
c010402f:	69 d2 84 00 00 00    	imul   $0x84,%edx,%edx
c0104035:	81 ea 84 00 00 00    	sub    $0x84,%edx
c010403b:	01 c2                	add    %eax,%edx
c010403d:	8b 45 0c             	mov    0xc(%ebp),%eax
c0104040:	89 82 80 00 00 00    	mov    %eax,0x80(%edx)
c0104046:	90                   	nop
c0104047:	c9                   	leave
c0104048:	c3                   	ret

c0104049 <__k_fs_vfs_get_mount_callback>:
c0104049:	55                   	push   %ebp
c010404a:	89 e5                	mov    %esp,%ebp
c010404c:	83 ec 18             	sub    $0x18,%esp
c010404f:	c7 45 f4 00 00 00 00 	movl   $0x0,-0xc(%ebp)
c0104056:	eb 41                	jmp    c0104099 <__k_fs_vfs_get_mount_callback+0x50>
c0104058:	8b 15 54 bd 10 c0    	mov    0xc010bd54,%edx
c010405e:	8b 45 f4             	mov    -0xc(%ebp),%eax
c0104061:	69 c0 84 00 00 00    	imul   $0x84,%eax,%eax
c0104067:	01 d0                	add    %edx,%eax
c0104069:	83 ec 08             	sub    $0x8,%esp
c010406c:	ff 75 08             	push   0x8(%ebp)
c010406f:	50                   	push   %eax
c0104070:	e8 38 2b 00 00       	call   c0106bad <strcmp>
c0104075:	83 c4 10             	add    $0x10,%esp
c0104078:	85 c0                	test   %eax,%eax
c010407a:	75 19                	jne    c0104095 <__k_fs_vfs_get_mount_callback+0x4c>
c010407c:	8b 15 54 bd 10 c0    	mov    0xc010bd54,%edx
c0104082:	8b 45 f4             	mov    -0xc(%ebp),%eax
c0104085:	69 c0 84 00 00 00    	imul   $0x84,%eax,%eax
c010408b:	01 d0                	add    %edx,%eax
c010408d:	8b 80 80 00 00 00    	mov    0x80(%eax),%eax
c0104093:	eb 13                	jmp    c01040a8 <__k_fs_vfs_get_mount_callback+0x5f>
c0104095:	83 45 f4 01          	addl   $0x1,-0xc(%ebp)
c0104099:	a1 4c bd 10 c0       	mov    0xc010bd4c,%eax
c010409e:	39 45 f4             	cmp    %eax,-0xc(%ebp)
c01040a1:	72 b5                	jb     c0104058 <__k_fs_vfs_get_mount_callback+0xf>
c01040a3:	b8 00 00 00 00       	mov    $0x0,%eax
c01040a8:	c9                   	leave
c01040a9:	c3                   	ret

c01040aa <k_fs_vfs_map_path>:
c01040aa:	55                   	push   %ebp
c01040ab:	89 e5                	mov    %esp,%ebp
c01040ad:	83 ec 08             	sub    $0x8,%esp
c01040b0:	83 ec 08             	sub    $0x8,%esp
c01040b3:	6a 01                	push   $0x1
c01040b5:	ff 75 08             	push   0x8(%ebp)
c01040b8:	e8 a3 fd ff ff       	call   c0103e60 <__k_fs_vfs_get_entry>
c01040bd:	83 c4 10             	add    $0x10,%esp
c01040c0:	c9                   	leave
c01040c1:	c3                   	ret

c01040c2 <k_fs_vfs_init>:
c01040c2:	55                   	push   %ebp
c01040c3:	89 e5                	mov    %esp,%ebp
c01040c5:	83 ec 18             	sub    $0x18,%esp
c01040c8:	e8 d5 db ff ff       	call   c0101ca2 <tree_create>
c01040cd:	a3 50 bd 10 c0       	mov    %eax,0xc010bd50
c01040d2:	83 ec 0c             	sub    $0xc,%esp
c01040d5:	68 66 75 10 c0       	push   $0xc0107566
c01040da:	e8 32 00 00 00       	call   c0104111 <k_fs_vfs_create_entry>
c01040df:	83 c4 10             	add    $0x10,%esp
c01040e2:	89 45 f4             	mov    %eax,-0xc(%ebp)
c01040e5:	83 ec 0c             	sub    $0xc,%esp
c01040e8:	ff 75 f4             	push   -0xc(%ebp)
c01040eb:	e8 0e dc ff ff       	call   c0101cfe <tree_create_node>
c01040f0:	83 c4 10             	add    $0x10,%esp
c01040f3:	89 45 f0             	mov    %eax,-0x10(%ebp)
c01040f6:	a1 50 bd 10 c0       	mov    0xc010bd50,%eax
c01040fb:	83 ec 08             	sub    $0x8,%esp
c01040fe:	ff 75 f0             	push   -0x10(%ebp)
c0104101:	50                   	push   %eax
c0104102:	e8 d3 db ff ff       	call   c0101cda <tree_set_root>
c0104107:	83 c4 10             	add    $0x10,%esp
c010410a:	b8 00 00 00 00       	mov    $0x0,%eax
c010410f:	c9                   	leave
c0104110:	c3                   	ret

c0104111 <k_fs_vfs_create_entry>:
c0104111:	55                   	push   %ebp
c0104112:	89 e5                	mov    %esp,%ebp
c0104114:	83 ec 18             	sub    $0x18,%esp
c0104117:	83 ec 0c             	sub    $0xc,%esp
c010411a:	68 04 01 00 00       	push   $0x104
c010411f:	e8 47 eb ff ff       	call   c0102c6b <k_mem_heap_alloc>
c0104124:	83 c4 10             	add    $0x10,%esp
c0104127:	89 45 f4             	mov    %eax,-0xc(%ebp)
c010412a:	83 ec 04             	sub    $0x4,%esp
c010412d:	68 04 01 00 00       	push   $0x104
c0104132:	6a 00                	push   $0x0
c0104134:	ff 75 f4             	push   -0xc(%ebp)
c0104137:	e8 f3 27 00 00       	call   c010692f <memset>
c010413c:	83 c4 10             	add    $0x10,%esp
c010413f:	8b 45 f4             	mov    -0xc(%ebp),%eax
c0104142:	83 ec 08             	sub    $0x8,%esp
c0104145:	ff 75 08             	push   0x8(%ebp)
c0104148:	50                   	push   %eax
c0104149:	e8 1f 29 00 00       	call   c0106a6d <strcpy>
c010414e:	83 c4 10             	add    $0x10,%esp
c0104151:	8b 45 f4             	mov    -0xc(%ebp),%eax
c0104154:	c9                   	leave
c0104155:	c3                   	ret

c0104156 <k_fs_vfs_create_node>:
c0104156:	55                   	push   %ebp
c0104157:	89 e5                	mov    %esp,%ebp
c0104159:	83 ec 18             	sub    $0x18,%esp
c010415c:	83 ec 0c             	sub    $0xc,%esp
c010415f:	68 2c 01 00 00       	push   $0x12c
c0104164:	e8 02 eb ff ff       	call   c0102c6b <k_mem_heap_alloc>
c0104169:	83 c4 10             	add    $0x10,%esp
c010416c:	89 45 f4             	mov    %eax,-0xc(%ebp)
c010416f:	8b 45 f4             	mov    -0xc(%ebp),%eax
c0104172:	83 ec 08             	sub    $0x8,%esp
c0104175:	ff 75 08             	push   0x8(%ebp)
c0104178:	50                   	push   %eax
c0104179:	e8 ef 28 00 00       	call   c0106a6d <strcpy>
c010417e:	83 c4 10             	add    $0x10,%esp
c0104181:	8b 45 f4             	mov    -0xc(%ebp),%eax
c0104184:	c7 80 08 01 00 00 00 	movl   $0x0,0x108(%eax)
c010418b:	00 00 00 
c010418e:	c7 80 0c 01 00 00 00 	movl   $0x0,0x10c(%eax)
c0104195:	00 00 00 
c0104198:	8b 45 f4             	mov    -0xc(%ebp),%eax
c010419b:	c7 80 04 01 00 00 00 	movl   $0x0,0x104(%eax)
c01041a2:	00 00 00 
c01041a5:	8b 45 f4             	mov    -0xc(%ebp),%eax
c01041a8:	05 14 01 00 00       	add    $0x114,%eax
c01041ad:	83 ec 04             	sub    $0x4,%esp
c01041b0:	6a 18                	push   $0x18
c01041b2:	6a 00                	push   $0x0
c01041b4:	50                   	push   %eax
c01041b5:	e8 75 27 00 00       	call   c010692f <memset>
c01041ba:	83 c4 10             	add    $0x10,%esp
c01041bd:	8b 45 f4             	mov    -0xc(%ebp),%eax
c01041c0:	c7 80 10 01 00 00 00 	movl   $0x0,0x110(%eax)
c01041c7:	00 00 00 
c01041ca:	8b 45 f4             	mov    -0xc(%ebp),%eax
c01041cd:	c9                   	leave
c01041ce:	c3                   	ret

c01041cf <k_fs_vfs_read>:
c01041cf:	55                   	push   %ebp
c01041d0:	89 e5                	mov    %esp,%ebp
c01041d2:	83 ec 08             	sub    $0x8,%esp
c01041d5:	8b 45 08             	mov    0x8(%ebp),%eax
c01041d8:	8b 80 18 01 00 00    	mov    0x118(%eax),%eax
c01041de:	85 c0                	test   %eax,%eax
c01041e0:	75 07                	jne    c01041e9 <k_fs_vfs_read+0x1a>
c01041e2:	b8 00 00 00 00       	mov    $0x0,%eax
c01041e7:	eb 1a                	jmp    c0104203 <k_fs_vfs_read+0x34>
c01041e9:	8b 45 08             	mov    0x8(%ebp),%eax
c01041ec:	8b 80 18 01 00 00    	mov    0x118(%eax),%eax
c01041f2:	ff 75 14             	push   0x14(%ebp)
c01041f5:	ff 75 10             	push   0x10(%ebp)
c01041f8:	ff 75 0c             	push   0xc(%ebp)
c01041fb:	ff 75 08             	push   0x8(%ebp)
c01041fe:	ff d0                	call   *%eax
c0104200:	83 c4 10             	add    $0x10,%esp
c0104203:	c9                   	leave
c0104204:	c3                   	ret

c0104205 <k_fs_vfs_write>:
c0104205:	55                   	push   %ebp
c0104206:	89 e5                	mov    %esp,%ebp
c0104208:	83 ec 08             	sub    $0x8,%esp
c010420b:	8b 45 08             	mov    0x8(%ebp),%eax
c010420e:	8b 80 14 01 00 00    	mov    0x114(%eax),%eax
c0104214:	85 c0                	test   %eax,%eax
c0104216:	75 07                	jne    c010421f <k_fs_vfs_write+0x1a>
c0104218:	b8 00 00 00 00       	mov    $0x0,%eax
c010421d:	eb 1a                	jmp    c0104239 <k_fs_vfs_write+0x34>
c010421f:	8b 45 08             	mov    0x8(%ebp),%eax
c0104222:	8b 80 14 01 00 00    	mov    0x114(%eax),%eax
c0104228:	ff 75 14             	push   0x14(%ebp)
c010422b:	ff 75 10             	push   0x10(%ebp)
c010422e:	ff 75 0c             	push   0xc(%ebp)
c0104231:	ff 75 08             	push   0x8(%ebp)
c0104234:	ff d0                	call   *%eax
c0104236:	83 c4 10             	add    $0x10,%esp
c0104239:	c9                   	leave
c010423a:	c3                   	ret

c010423b <k_fs_vfs_open>:
c010423b:	55                   	push   %ebp
c010423c:	89 e5                	mov    %esp,%ebp
c010423e:	83 ec 18             	sub    $0x18,%esp
c0104241:	83 ec 0c             	sub    $0xc,%esp
c0104244:	ff 75 08             	push   0x8(%ebp)
c0104247:	e8 90 fa ff ff       	call   c0103cdc <__k_fs_vfs_find_node>
c010424c:	83 c4 10             	add    $0x10,%esp
c010424f:	89 45 f4             	mov    %eax,-0xc(%ebp)
c0104252:	83 7d f4 00          	cmpl   $0x0,-0xc(%ebp)
c0104256:	74 21                	je     c0104279 <k_fs_vfs_open+0x3e>
c0104258:	8b 45 f4             	mov    -0xc(%ebp),%eax
c010425b:	8b 80 1c 01 00 00    	mov    0x11c(%eax),%eax
c0104261:	85 c0                	test   %eax,%eax
c0104263:	74 14                	je     c0104279 <k_fs_vfs_open+0x3e>
c0104265:	8b 45 f4             	mov    -0xc(%ebp),%eax
c0104268:	8b 80 1c 01 00 00    	mov    0x11c(%eax),%eax
c010426e:	83 ec 0c             	sub    $0xc,%esp
c0104271:	ff 75 f4             	push   -0xc(%ebp)
c0104274:	ff d0                	call   *%eax
c0104276:	83 c4 10             	add    $0x10,%esp
c0104279:	8b 45 f4             	mov    -0xc(%ebp),%eax
c010427c:	c9                   	leave
c010427d:	c3                   	ret

c010427e <k_fs_vfs_close>:
c010427e:	55                   	push   %ebp
c010427f:	89 e5                	mov    %esp,%ebp
c0104281:	83 ec 08             	sub    $0x8,%esp
c0104284:	83 7d 08 00          	cmpl   $0x0,0x8(%ebp)
c0104288:	74 2f                	je     c01042b9 <k_fs_vfs_close+0x3b>
c010428a:	8b 45 08             	mov    0x8(%ebp),%eax
c010428d:	8b 80 20 01 00 00    	mov    0x120(%eax),%eax
c0104293:	85 c0                	test   %eax,%eax
c0104295:	74 14                	je     c01042ab <k_fs_vfs_close+0x2d>
c0104297:	8b 45 08             	mov    0x8(%ebp),%eax
c010429a:	8b 80 20 01 00 00    	mov    0x120(%eax),%eax
c01042a0:	83 ec 0c             	sub    $0xc,%esp
c01042a3:	ff 75 08             	push   0x8(%ebp)
c01042a6:	ff d0                	call   *%eax
c01042a8:	83 c4 10             	add    $0x10,%esp
c01042ab:	83 ec 0c             	sub    $0xc,%esp
c01042ae:	ff 75 08             	push   0x8(%ebp)
c01042b1:	e8 25 eb ff ff       	call   c0102ddb <k_mem_heap_free>
c01042b6:	83 c4 10             	add    $0x10,%esp
c01042b9:	90                   	nop
c01042ba:	c9                   	leave
c01042bb:	c3                   	ret

c01042bc <k_fs_vfs_readdir>:
c01042bc:	55                   	push   %ebp
c01042bd:	89 e5                	mov    %esp,%ebp
c01042bf:	83 ec 08             	sub    $0x8,%esp
c01042c2:	8b 45 08             	mov    0x8(%ebp),%eax
c01042c5:	8b 80 28 01 00 00    	mov    0x128(%eax),%eax
c01042cb:	85 c0                	test   %eax,%eax
c01042cd:	75 07                	jne    c01042d6 <k_fs_vfs_readdir+0x1a>
c01042cf:	b8 00 00 00 00       	mov    $0x0,%eax
c01042d4:	eb 17                	jmp    c01042ed <k_fs_vfs_readdir+0x31>
c01042d6:	8b 45 08             	mov    0x8(%ebp),%eax
c01042d9:	8b 80 28 01 00 00    	mov    0x128(%eax),%eax
c01042df:	83 ec 08             	sub    $0x8,%esp
c01042e2:	ff 75 0c             	push   0xc(%ebp)
c01042e5:	ff 75 08             	push   0x8(%ebp)
c01042e8:	ff d0                	call   *%eax
c01042ea:	83 c4 10             	add    $0x10,%esp
c01042ed:	c9                   	leave
c01042ee:	c3                   	ret

c01042ef <k_fs_vfs_finddir>:
c01042ef:	55                   	push   %ebp
c01042f0:	89 e5                	mov    %esp,%ebp
c01042f2:	83 ec 08             	sub    $0x8,%esp
c01042f5:	8b 45 08             	mov    0x8(%ebp),%eax
c01042f8:	8b 80 24 01 00 00    	mov    0x124(%eax),%eax
c01042fe:	85 c0                	test   %eax,%eax
c0104300:	75 07                	jne    c0104309 <k_fs_vfs_finddir+0x1a>
c0104302:	b8 00 00 00 00       	mov    $0x0,%eax
c0104307:	eb 17                	jmp    c0104320 <k_fs_vfs_finddir+0x31>
c0104309:	8b 45 08             	mov    0x8(%ebp),%eax
c010430c:	8b 80 24 01 00 00    	mov    0x124(%eax),%eax
c0104312:	83 ec 08             	sub    $0x8,%esp
c0104315:	ff 75 0c             	push   0xc(%ebp)
c0104318:	ff 75 08             	push   0x8(%ebp)
c010431b:	ff d0                	call   *%eax
c010431d:	83 c4 10             	add    $0x10,%esp
c0104320:	c9                   	leave
c0104321:	c3                   	ret

c0104322 <k_fs_vfs_mount_node>:
c0104322:	55                   	push   %ebp
c0104323:	89 e5                	mov    %esp,%ebp
c0104325:	83 ec 18             	sub    $0x18,%esp
c0104328:	83 ec 08             	sub    $0x8,%esp
c010432b:	6a 01                	push   $0x1
c010432d:	ff 75 08             	push   0x8(%ebp)
c0104330:	e8 2b fb ff ff       	call   c0103e60 <__k_fs_vfs_get_entry>
c0104335:	83 c4 10             	add    $0x10,%esp
c0104338:	89 45 f4             	mov    %eax,-0xc(%ebp)
c010433b:	83 7d f4 00          	cmpl   $0x0,-0xc(%ebp)
c010433f:	74 13                	je     c0104354 <k_fs_vfs_mount_node+0x32>
c0104341:	8b 45 f4             	mov    -0xc(%ebp),%eax
c0104344:	8b 55 0c             	mov    0xc(%ebp),%edx
c0104347:	89 90 00 01 00 00    	mov    %edx,0x100(%eax)
c010434d:	b8 00 00 00 00       	mov    $0x0,%eax
c0104352:	eb 05                	jmp    c0104359 <k_fs_vfs_mount_node+0x37>
c0104354:	b8 01 00 00 00       	mov    $0x1,%eax
c0104359:	c9                   	leave
c010435a:	c3                   	ret

c010435b <k_fs_vfs_mount>:
c010435b:	55                   	push   %ebp
c010435c:	89 e5                	mov    %esp,%ebp
c010435e:	83 ec 18             	sub    $0x18,%esp
c0104361:	83 ec 0c             	sub    $0xc,%esp
c0104364:	ff 75 10             	push   0x10(%ebp)
c0104367:	e8 dd fc ff ff       	call   c0104049 <__k_fs_vfs_get_mount_callback>
c010436c:	83 c4 10             	add    $0x10,%esp
c010436f:	89 45 f4             	mov    %eax,-0xc(%ebp)
c0104372:	83 7d f4 00          	cmpl   $0x0,-0xc(%ebp)
c0104376:	74 2d                	je     c01043a5 <k_fs_vfs_mount+0x4a>
c0104378:	83 ec 08             	sub    $0x8,%esp
c010437b:	ff 75 0c             	push   0xc(%ebp)
c010437e:	ff 75 08             	push   0x8(%ebp)
c0104381:	8b 45 f4             	mov    -0xc(%ebp),%eax
c0104384:	ff d0                	call   *%eax
c0104386:	83 c4 10             	add    $0x10,%esp
c0104389:	89 45 f0             	mov    %eax,-0x10(%ebp)
c010438c:	83 7d f0 00          	cmpl   $0x0,-0x10(%ebp)
c0104390:	74 13                	je     c01043a5 <k_fs_vfs_mount+0x4a>
c0104392:	83 ec 08             	sub    $0x8,%esp
c0104395:	ff 75 f0             	push   -0x10(%ebp)
c0104398:	ff 75 08             	push   0x8(%ebp)
c010439b:	e8 82 ff ff ff       	call   c0104322 <k_fs_vfs_mount_node>
c01043a0:	83 c4 10             	add    $0x10,%esp
c01043a3:	eb 05                	jmp    c01043aa <k_fs_vfs_mount+0x4f>
c01043a5:	b8 01 00 00 00       	mov    $0x1,%eax
c01043aa:	c9                   	leave
c01043ab:	c3                   	ret

c01043ac <__k_d_fs_vfs_print_entry>:
c01043ac:	55                   	push   %ebp
c01043ad:	89 e5                	mov    %esp,%ebp
c01043af:	81 ec 28 06 00 00    	sub    $0x628,%esp
c01043b5:	8b 45 0c             	mov    0xc(%ebp),%eax
c01043b8:	88 85 e4 f9 ff ff    	mov    %al,-0x61c(%ebp)
c01043be:	c7 45 f4 00 00 00 00 	movl   $0x0,-0xc(%ebp)
c01043c5:	eb 20                	jmp    c01043e7 <__k_d_fs_vfs_print_entry+0x3b>
c01043c7:	8d 95 f4 f9 ff ff    	lea    -0x60c(%ebp),%edx
c01043cd:	8b 45 f4             	mov    -0xc(%ebp),%eax
c01043d0:	01 d0                	add    %edx,%eax
c01043d2:	c6 00 2d             	movb   $0x2d,(%eax)
c01043d5:	8b 45 f4             	mov    -0xc(%ebp),%eax
c01043d8:	83 c0 01             	add    $0x1,%eax
c01043db:	c6 84 05 f4 f9 ff ff 	movb   $0x2d,-0x60c(%ebp,%eax,1)
c01043e2:	2d 
c01043e3:	83 45 f4 01          	addl   $0x1,-0xc(%ebp)
c01043e7:	0f b6 85 e4 f9 ff ff 	movzbl -0x61c(%ebp),%eax
c01043ee:	01 c0                	add    %eax,%eax
c01043f0:	83 e8 01             	sub    $0x1,%eax
c01043f3:	39 45 f4             	cmp    %eax,-0xc(%ebp)
c01043f6:	7c cf                	jl     c01043c7 <__k_d_fs_vfs_print_entry+0x1b>
c01043f8:	0f b6 85 e4 f9 ff ff 	movzbl -0x61c(%ebp),%eax
c01043ff:	01 c0                	add    %eax,%eax
c0104401:	83 e8 01             	sub    $0x1,%eax
c0104404:	c6 84 05 f4 f9 ff ff 	movb   $0x3e,-0x60c(%ebp,%eax,1)
c010440b:	3e 
c010440c:	0f b6 85 e4 f9 ff ff 	movzbl -0x61c(%ebp),%eax
c0104413:	01 c0                	add    %eax,%eax
c0104415:	c6 84 05 f4 f9 ff ff 	movb   $0x0,-0x60c(%ebp,%eax,1)
c010441c:	00 
c010441d:	8b 45 08             	mov    0x8(%ebp),%eax
c0104420:	50                   	push   %eax
c0104421:	8d 85 f4 f9 ff ff    	lea    -0x60c(%ebp),%eax
c0104427:	50                   	push   %eax
c0104428:	68 6d 75 10 c0       	push   $0xc010756d
c010442d:	8d 85 f4 fb ff ff    	lea    -0x40c(%ebp),%eax
c0104433:	50                   	push   %eax
c0104434:	e8 10 24 00 00       	call   c0106849 <sprintf_>
c0104439:	83 c4 10             	add    $0x10,%esp
c010443c:	83 ec 0c             	sub    $0xc,%esp
c010443f:	8d 85 f4 fb ff ff    	lea    -0x40c(%ebp),%eax
c0104445:	50                   	push   %eax
c0104446:	e8 15 d5 ff ff       	call   c0101960 <k_info>
c010444b:	83 c4 10             	add    $0x10,%esp
c010444e:	90                   	nop
c010444f:	c9                   	leave
c0104450:	c3                   	ret

c0104451 <__k_d_fs_vfs_print_node>:
c0104451:	55                   	push   %ebp
c0104452:	89 e5                	mov    %esp,%ebp
c0104454:	83 ec 28             	sub    $0x28,%esp
c0104457:	8b 45 0c             	mov    0xc(%ebp),%eax
c010445a:	88 45 e4             	mov    %al,-0x1c(%ebp)
c010445d:	0f b6 55 e4          	movzbl -0x1c(%ebp),%edx
c0104461:	8b 45 08             	mov    0x8(%ebp),%eax
c0104464:	8b 40 10             	mov    0x10(%eax),%eax
c0104467:	83 ec 08             	sub    $0x8,%esp
c010446a:	52                   	push   %edx
c010446b:	50                   	push   %eax
c010446c:	e8 3b ff ff ff       	call   c01043ac <__k_d_fs_vfs_print_entry>
c0104471:	83 c4 10             	add    $0x10,%esp
c0104474:	c7 45 f4 00 00 00 00 	movl   $0x0,-0xc(%ebp)
c010447b:	eb 2b                	jmp    c01044a8 <__k_d_fs_vfs_print_node+0x57>
c010447d:	0f b6 45 e4          	movzbl -0x1c(%ebp),%eax
c0104481:	83 c0 01             	add    $0x1,%eax
c0104484:	0f b6 d0             	movzbl %al,%edx
c0104487:	8b 45 08             	mov    0x8(%ebp),%eax
c010448a:	8b 40 08             	mov    0x8(%eax),%eax
c010448d:	8b 4d f4             	mov    -0xc(%ebp),%ecx
c0104490:	c1 e1 02             	shl    $0x2,%ecx
c0104493:	01 c8                	add    %ecx,%eax
c0104495:	8b 00                	mov    (%eax),%eax
c0104497:	83 ec 08             	sub    $0x8,%esp
c010449a:	52                   	push   %edx
c010449b:	50                   	push   %eax
c010449c:	e8 b0 ff ff ff       	call   c0104451 <__k_d_fs_vfs_print_node>
c01044a1:	83 c4 10             	add    $0x10,%esp
c01044a4:	83 45 f4 01          	addl   $0x1,-0xc(%ebp)
c01044a8:	8b 45 08             	mov    0x8(%ebp),%eax
c01044ab:	8b 40 0c             	mov    0xc(%eax),%eax
c01044ae:	39 45 f4             	cmp    %eax,-0xc(%ebp)
c01044b1:	72 ca                	jb     c010447d <__k_d_fs_vfs_print_node+0x2c>
c01044b3:	90                   	nop
c01044b4:	90                   	nop
c01044b5:	c9                   	leave
c01044b6:	c3                   	ret

c01044b7 <k_d_fs_vfs_print>:
c01044b7:	55                   	push   %ebp
c01044b8:	89 e5                	mov    %esp,%ebp
c01044ba:	83 ec 08             	sub    $0x8,%esp
c01044bd:	a1 50 bd 10 c0       	mov    0xc010bd50,%eax
c01044c2:	8b 00                	mov    (%eax),%eax
c01044c4:	83 ec 08             	sub    $0x8,%esp
c01044c7:	6a 00                	push   $0x0
c01044c9:	50                   	push   %eax
c01044ca:	e8 82 ff ff ff       	call   c0104451 <__k_d_fs_vfs_print_node>
c01044cf:	83 c4 10             	add    $0x10,%esp
c01044d2:	90                   	nop
c01044d3:	c9                   	leave
c01044d4:	c3                   	ret

c01044d5 <__k_fs_tar_get_size>:
c01044d5:	55                   	push   %ebp
c01044d6:	89 e5                	mov    %esp,%ebp
c01044d8:	83 ec 10             	sub    $0x10,%esp
c01044db:	c7 45 fc 00 00 00 00 	movl   $0x0,-0x4(%ebp)
c01044e2:	c7 45 f4 01 00 00 00 	movl   $0x1,-0xc(%ebp)
c01044e9:	c7 45 f8 0b 00 00 00 	movl   $0xb,-0x8(%ebp)
c01044f0:	eb 23                	jmp    c0104515 <__k_fs_tar_get_size+0x40>
c01044f2:	8b 45 f8             	mov    -0x8(%ebp),%eax
c01044f5:	8d 50 ff             	lea    -0x1(%eax),%edx
c01044f8:	8b 45 08             	mov    0x8(%ebp),%eax
c01044fb:	01 d0                	add    %edx,%eax
c01044fd:	0f b6 00             	movzbl (%eax),%eax
c0104500:	0f be c0             	movsbl %al,%eax
c0104503:	83 e8 30             	sub    $0x30,%eax
c0104506:	0f af 45 f4          	imul   -0xc(%ebp),%eax
c010450a:	01 45 fc             	add    %eax,-0x4(%ebp)
c010450d:	83 6d f8 01          	subl   $0x1,-0x8(%ebp)
c0104511:	c1 65 f4 03          	shll   $0x3,-0xc(%ebp)
c0104515:	83 7d f8 00          	cmpl   $0x0,-0x8(%ebp)
c0104519:	75 d7                	jne    c01044f2 <__k_fs_tar_get_size+0x1d>
c010451b:	8b 45 fc             	mov    -0x4(%ebp),%eax
c010451e:	c9                   	leave
c010451f:	c3                   	ret

c0104520 <__k_fs_tar_read_header>:
c0104520:	55                   	push   %ebp
c0104521:	89 e5                	mov    %esp,%ebp
c0104523:	83 ec 18             	sub    $0x18,%esp
c0104526:	83 ec 0c             	sub    $0xc,%esp
c0104529:	68 9d 00 00 00       	push   $0x9d
c010452e:	e8 38 e7 ff ff       	call   c0102c6b <k_mem_heap_alloc>
c0104533:	83 c4 10             	add    $0x10,%esp
c0104536:	89 45 f4             	mov    %eax,-0xc(%ebp)
c0104539:	ff 75 f4             	push   -0xc(%ebp)
c010453c:	68 9d 00 00 00       	push   $0x9d
c0104541:	ff 75 0c             	push   0xc(%ebp)
c0104544:	ff 75 08             	push   0x8(%ebp)
c0104547:	e8 83 fc ff ff       	call   c01041cf <k_fs_vfs_read>
c010454c:	83 c4 10             	add    $0x10,%esp
c010454f:	8b 45 f4             	mov    -0xc(%ebp),%eax
c0104552:	c9                   	leave
c0104553:	c3                   	ret

c0104554 <__k_fs_tar_create_node>:
c0104554:	55                   	push   %ebp
c0104555:	89 e5                	mov    %esp,%ebp
c0104557:	83 ec 18             	sub    $0x18,%esp
c010455a:	8b 45 0c             	mov    0xc(%ebp),%eax
c010455d:	83 ec 0c             	sub    $0xc,%esp
c0104560:	50                   	push   %eax
c0104561:	e8 3e d6 ff ff       	call   c0101ba4 <k_util_path_filename>
c0104566:	83 c4 10             	add    $0x10,%esp
c0104569:	89 45 f4             	mov    %eax,-0xc(%ebp)
c010456c:	83 ec 0c             	sub    $0xc,%esp
c010456f:	ff 75 f4             	push   -0xc(%ebp)
c0104572:	e8 df fb ff ff       	call   c0104156 <k_fs_vfs_create_node>
c0104577:	83 c4 10             	add    $0x10,%esp
c010457a:	89 45 f0             	mov    %eax,-0x10(%ebp)
c010457d:	83 ec 0c             	sub    $0xc,%esp
c0104580:	ff 75 f4             	push   -0xc(%ebp)
c0104583:	e8 53 e8 ff ff       	call   c0102ddb <k_mem_heap_free>
c0104588:	83 c4 10             	add    $0x10,%esp
c010458b:	8b 45 f0             	mov    -0x10(%ebp),%eax
c010458e:	8b 55 08             	mov    0x8(%ebp),%edx
c0104591:	89 90 00 01 00 00    	mov    %edx,0x100(%eax)
c0104597:	8b 45 10             	mov    0x10(%ebp),%eax
c010459a:	ba 00 00 00 00       	mov    $0x0,%edx
c010459f:	8b 4d f0             	mov    -0x10(%ebp),%ecx
c01045a2:	89 81 08 01 00 00    	mov    %eax,0x108(%ecx)
c01045a8:	89 91 0c 01 00 00    	mov    %edx,0x10c(%ecx)
c01045ae:	8b 45 0c             	mov    0xc(%ebp),%eax
c01045b1:	83 c0 7c             	add    $0x7c,%eax
c01045b4:	83 ec 0c             	sub    $0xc,%esp
c01045b7:	50                   	push   %eax
c01045b8:	e8 18 ff ff ff       	call   c01044d5 <__k_fs_tar_get_size>
c01045bd:	83 c4 10             	add    $0x10,%esp
c01045c0:	8b 55 f0             	mov    -0x10(%ebp),%edx
c01045c3:	89 82 10 01 00 00    	mov    %eax,0x110(%edx)
c01045c9:	8b 45 f0             	mov    -0x10(%ebp),%eax
c01045cc:	c7 80 18 01 00 00 f5 	movl   $0xc01045f5,0x118(%eax)
c01045d3:	45 10 c0 
c01045d6:	8b 45 f0             	mov    -0x10(%ebp),%eax
c01045d9:	c7 80 24 01 00 00 93 	movl   $0xc0104893,0x124(%eax)
c01045e0:	48 10 c0 
c01045e3:	8b 45 f0             	mov    -0x10(%ebp),%eax
c01045e6:	c7 80 28 01 00 00 aa 	movl   $0xc01046aa,0x128(%eax)
c01045ed:	46 10 c0 
c01045f0:	8b 45 f0             	mov    -0x10(%ebp),%eax
c01045f3:	c9                   	leave
c01045f4:	c3                   	ret

c01045f5 <__k_fs_tar_read>:
c01045f5:	55                   	push   %ebp
c01045f6:	89 e5                	mov    %esp,%ebp
c01045f8:	83 ec 18             	sub    $0x18,%esp
c01045fb:	8b 45 08             	mov    0x8(%ebp),%eax
c01045fe:	8b 80 00 01 00 00    	mov    0x100(%eax),%eax
c0104604:	89 45 f4             	mov    %eax,-0xc(%ebp)
c0104607:	8b 45 08             	mov    0x8(%ebp),%eax
c010460a:	8b 90 0c 01 00 00    	mov    0x10c(%eax),%edx
c0104610:	8b 80 08 01 00 00    	mov    0x108(%eax),%eax
c0104616:	83 ec 08             	sub    $0x8,%esp
c0104619:	50                   	push   %eax
c010461a:	ff 75 f4             	push   -0xc(%ebp)
c010461d:	e8 fe fe ff ff       	call   c0104520 <__k_fs_tar_read_header>
c0104622:	83 c4 10             	add    $0x10,%esp
c0104625:	89 45 f0             	mov    %eax,-0x10(%ebp)
c0104628:	8b 45 f0             	mov    -0x10(%ebp),%eax
c010462b:	83 c0 7c             	add    $0x7c,%eax
c010462e:	83 ec 0c             	sub    $0xc,%esp
c0104631:	50                   	push   %eax
c0104632:	e8 9e fe ff ff       	call   c01044d5 <__k_fs_tar_get_size>
c0104637:	83 c4 10             	add    $0x10,%esp
c010463a:	89 45 ec             	mov    %eax,-0x14(%ebp)
c010463d:	8b 45 0c             	mov    0xc(%ebp),%eax
c0104640:	39 45 ec             	cmp    %eax,-0x14(%ebp)
c0104643:	73 15                	jae    c010465a <__k_fs_tar_read+0x65>
c0104645:	83 ec 0c             	sub    $0xc,%esp
c0104648:	ff 75 f0             	push   -0x10(%ebp)
c010464b:	e8 8b e7 ff ff       	call   c0102ddb <k_mem_heap_free>
c0104650:	83 c4 10             	add    $0x10,%esp
c0104653:	b8 00 00 00 00       	mov    $0x0,%eax
c0104658:	eb 4e                	jmp    c01046a8 <__k_fs_tar_read+0xb3>
c010465a:	8b 55 0c             	mov    0xc(%ebp),%edx
c010465d:	8b 45 10             	mov    0x10(%ebp),%eax
c0104660:	01 d0                	add    %edx,%eax
c0104662:	39 45 ec             	cmp    %eax,-0x14(%ebp)
c0104665:	73 06                	jae    c010466d <__k_fs_tar_read+0x78>
c0104667:	8b 45 ec             	mov    -0x14(%ebp),%eax
c010466a:	89 45 10             	mov    %eax,0x10(%ebp)
c010466d:	83 ec 0c             	sub    $0xc,%esp
c0104670:	ff 75 f0             	push   -0x10(%ebp)
c0104673:	e8 63 e7 ff ff       	call   c0102ddb <k_mem_heap_free>
c0104678:	83 c4 10             	add    $0x10,%esp
c010467b:	8b 45 08             	mov    0x8(%ebp),%eax
c010467e:	8b 90 0c 01 00 00    	mov    0x10c(%eax),%edx
c0104684:	8b 80 08 01 00 00    	mov    0x108(%eax),%eax
c010468a:	89 c2                	mov    %eax,%edx
c010468c:	8b 45 0c             	mov    0xc(%ebp),%eax
c010468f:	01 d0                	add    %edx,%eax
c0104691:	05 00 02 00 00       	add    $0x200,%eax
c0104696:	ff 75 14             	push   0x14(%ebp)
c0104699:	ff 75 10             	push   0x10(%ebp)
c010469c:	50                   	push   %eax
c010469d:	ff 75 f4             	push   -0xc(%ebp)
c01046a0:	e8 2a fb ff ff       	call   c01041cf <k_fs_vfs_read>
c01046a5:	83 c4 10             	add    $0x10,%esp
c01046a8:	c9                   	leave
c01046a9:	c3                   	ret

c01046aa <__k_fs_tar_readdir>:
c01046aa:	55                   	push   %ebp
c01046ab:	89 e5                	mov    %esp,%ebp
c01046ad:	83 ec 38             	sub    $0x38,%esp
c01046b0:	8b 45 08             	mov    0x8(%ebp),%eax
c01046b3:	8b 80 00 01 00 00    	mov    0x100(%eax),%eax
c01046b9:	89 45 ec             	mov    %eax,-0x14(%ebp)
c01046bc:	8b 45 08             	mov    0x8(%ebp),%eax
c01046bf:	8b 90 0c 01 00 00    	mov    0x10c(%eax),%edx
c01046c5:	8b 80 08 01 00 00    	mov    0x108(%eax),%eax
c01046cb:	83 ec 08             	sub    $0x8,%esp
c01046ce:	50                   	push   %eax
c01046cf:	ff 75 ec             	push   -0x14(%ebp)
c01046d2:	e8 49 fe ff ff       	call   c0104520 <__k_fs_tar_read_header>
c01046d7:	83 c4 10             	add    $0x10,%esp
c01046da:	89 45 e8             	mov    %eax,-0x18(%ebp)
c01046dd:	c7 45 f4 00 00 00 00 	movl   $0x0,-0xc(%ebp)
c01046e4:	c7 45 f0 00 00 00 00 	movl   $0x0,-0x10(%ebp)
c01046eb:	8b 45 e8             	mov    -0x18(%ebp),%eax
c01046ee:	83 ec 0c             	sub    $0xc,%esp
c01046f1:	50                   	push   %eax
c01046f2:	e8 01 d3 ff ff       	call   c01019f8 <k_util_path_canonize>
c01046f7:	83 c4 10             	add    $0x10,%esp
c01046fa:	89 45 e4             	mov    %eax,-0x1c(%ebp)
c01046fd:	83 ec 0c             	sub    $0xc,%esp
c0104700:	ff 75 e8             	push   -0x18(%ebp)
c0104703:	e8 d3 e6 ff ff       	call   c0102ddb <k_mem_heap_free>
c0104708:	83 c4 10             	add    $0x10,%esp
c010470b:	e9 5c 01 00 00       	jmp    c010486c <__k_fs_tar_readdir+0x1c2>
c0104710:	83 ec 08             	sub    $0x8,%esp
c0104713:	ff 75 f4             	push   -0xc(%ebp)
c0104716:	ff 75 ec             	push   -0x14(%ebp)
c0104719:	e8 02 fe ff ff       	call   c0104520 <__k_fs_tar_read_header>
c010471e:	83 c4 10             	add    $0x10,%esp
c0104721:	89 45 e0             	mov    %eax,-0x20(%ebp)
c0104724:	8b 45 e0             	mov    -0x20(%ebp),%eax
c0104727:	83 ec 0c             	sub    $0xc,%esp
c010472a:	50                   	push   %eax
c010472b:	e8 80 23 00 00       	call   c0106ab0 <strlen>
c0104730:	83 c4 10             	add    $0x10,%esp
c0104733:	85 c0                	test   %eax,%eax
c0104735:	75 18                	jne    c010474f <__k_fs_tar_readdir+0xa5>
c0104737:	83 ec 0c             	sub    $0xc,%esp
c010473a:	ff 75 e0             	push   -0x20(%ebp)
c010473d:	e8 99 e6 ff ff       	call   c0102ddb <k_mem_heap_free>
c0104742:	83 c4 10             	add    $0x10,%esp
c0104745:	b8 00 00 00 00       	mov    $0x0,%eax
c010474a:	e9 42 01 00 00       	jmp    c0104891 <__k_fs_tar_readdir+0x1e7>
c010474f:	8b 45 e0             	mov    -0x20(%ebp),%eax
c0104752:	83 ec 0c             	sub    $0xc,%esp
c0104755:	50                   	push   %eax
c0104756:	e8 9d d2 ff ff       	call   c01019f8 <k_util_path_canonize>
c010475b:	83 c4 10             	add    $0x10,%esp
c010475e:	89 45 dc             	mov    %eax,-0x24(%ebp)
c0104761:	83 ec 0c             	sub    $0xc,%esp
c0104764:	ff 75 e4             	push   -0x1c(%ebp)
c0104767:	e8 44 23 00 00       	call   c0106ab0 <strlen>
c010476c:	83 c4 10             	add    $0x10,%esp
c010476f:	83 ec 04             	sub    $0x4,%esp
c0104772:	50                   	push   %eax
c0104773:	ff 75 e4             	push   -0x1c(%ebp)
c0104776:	ff 75 dc             	push   -0x24(%ebp)
c0104779:	e8 bc 25 00 00       	call   c0106d3a <strncmp>
c010477e:	83 c4 10             	add    $0x10,%esp
c0104781:	85 c0                	test   %eax,%eax
c0104783:	0f 85 a4 00 00 00    	jne    c010482d <__k_fs_tar_readdir+0x183>
c0104789:	83 ec 08             	sub    $0x8,%esp
c010478c:	ff 75 e4             	push   -0x1c(%ebp)
c010478f:	ff 75 dc             	push   -0x24(%ebp)
c0104792:	e8 16 24 00 00       	call   c0106bad <strcmp>
c0104797:	83 c4 10             	add    $0x10,%esp
c010479a:	85 c0                	test   %eax,%eax
c010479c:	0f 84 8b 00 00 00    	je     c010482d <__k_fs_tar_readdir+0x183>
c01047a2:	8b 45 f0             	mov    -0x10(%ebp),%eax
c01047a5:	3b 45 0c             	cmp    0xc(%ebp),%eax
c01047a8:	75 7f                	jne    c0104829 <__k_fs_tar_readdir+0x17f>
c01047aa:	83 ec 0c             	sub    $0xc,%esp
c01047ad:	ff 75 e4             	push   -0x1c(%ebp)
c01047b0:	e8 26 e6 ff ff       	call   c0102ddb <k_mem_heap_free>
c01047b5:	83 c4 10             	add    $0x10,%esp
c01047b8:	83 ec 0c             	sub    $0xc,%esp
c01047bb:	ff 75 e0             	push   -0x20(%ebp)
c01047be:	e8 18 e6 ff ff       	call   c0102ddb <k_mem_heap_free>
c01047c3:	83 c4 10             	add    $0x10,%esp
c01047c6:	83 ec 0c             	sub    $0xc,%esp
c01047c9:	ff 75 dc             	push   -0x24(%ebp)
c01047cc:	e8 0a e6 ff ff       	call   c0102ddb <k_mem_heap_free>
c01047d1:	83 c4 10             	add    $0x10,%esp
c01047d4:	83 ec 0c             	sub    $0xc,%esp
c01047d7:	68 04 01 00 00       	push   $0x104
c01047dc:	e8 8a e4 ff ff       	call   c0102c6b <k_mem_heap_alloc>
c01047e1:	83 c4 10             	add    $0x10,%esp
c01047e4:	89 45 d8             	mov    %eax,-0x28(%ebp)
c01047e7:	83 ec 0c             	sub    $0xc,%esp
c01047ea:	ff 75 dc             	push   -0x24(%ebp)
c01047ed:	e8 b2 d3 ff ff       	call   c0101ba4 <k_util_path_filename>
c01047f2:	83 c4 10             	add    $0x10,%esp
c01047f5:	89 45 d4             	mov    %eax,-0x2c(%ebp)
c01047f8:	8b 45 d8             	mov    -0x28(%ebp),%eax
c01047fb:	83 ec 08             	sub    $0x8,%esp
c01047fe:	ff 75 d4             	push   -0x2c(%ebp)
c0104801:	50                   	push   %eax
c0104802:	e8 66 22 00 00       	call   c0106a6d <strcpy>
c0104807:	83 c4 10             	add    $0x10,%esp
c010480a:	83 ec 0c             	sub    $0xc,%esp
c010480d:	ff 75 d4             	push   -0x2c(%ebp)
c0104810:	e8 c6 e5 ff ff       	call   c0102ddb <k_mem_heap_free>
c0104815:	83 c4 10             	add    $0x10,%esp
c0104818:	8b 45 d8             	mov    -0x28(%ebp),%eax
c010481b:	8b 55 f4             	mov    -0xc(%ebp),%edx
c010481e:	89 90 00 01 00 00    	mov    %edx,0x100(%eax)
c0104824:	8b 45 d8             	mov    -0x28(%ebp),%eax
c0104827:	eb 68                	jmp    c0104891 <__k_fs_tar_readdir+0x1e7>
c0104829:	83 45 f0 01          	addl   $0x1,-0x10(%ebp)
c010482d:	83 ec 0c             	sub    $0xc,%esp
c0104830:	ff 75 e0             	push   -0x20(%ebp)
c0104833:	e8 a3 e5 ff ff       	call   c0102ddb <k_mem_heap_free>
c0104838:	83 c4 10             	add    $0x10,%esp
c010483b:	83 ec 0c             	sub    $0xc,%esp
c010483e:	ff 75 dc             	push   -0x24(%ebp)
c0104841:	e8 95 e5 ff ff       	call   c0102ddb <k_mem_heap_free>
c0104846:	83 c4 10             	add    $0x10,%esp
c0104849:	81 45 f4 00 02 00 00 	addl   $0x200,-0xc(%ebp)
c0104850:	8b 45 f4             	mov    -0xc(%ebp),%eax
c0104853:	25 ff 01 00 00       	and    $0x1ff,%eax
c0104858:	85 c0                	test   %eax,%eax
c010485a:	74 10                	je     c010486c <__k_fs_tar_readdir+0x1c2>
c010485c:	8b 45 f4             	mov    -0xc(%ebp),%eax
c010485f:	25 00 fe ff ff       	and    $0xfffffe00,%eax
c0104864:	05 00 02 00 00       	add    $0x200,%eax
c0104869:	89 45 f4             	mov    %eax,-0xc(%ebp)
c010486c:	8b 45 ec             	mov    -0x14(%ebp),%eax
c010486f:	8b 80 10 01 00 00    	mov    0x110(%eax),%eax
c0104875:	39 45 f4             	cmp    %eax,-0xc(%ebp)
c0104878:	0f 82 92 fe ff ff    	jb     c0104710 <__k_fs_tar_readdir+0x66>
c010487e:	83 ec 0c             	sub    $0xc,%esp
c0104881:	ff 75 e4             	push   -0x1c(%ebp)
c0104884:	e8 52 e5 ff ff       	call   c0102ddb <k_mem_heap_free>
c0104889:	83 c4 10             	add    $0x10,%esp
c010488c:	b8 00 00 00 00       	mov    $0x0,%eax
c0104891:	c9                   	leave
c0104892:	c3                   	ret

c0104893 <__k_fs_tar_finddir>:
c0104893:	55                   	push   %ebp
c0104894:	89 e5                	mov    %esp,%ebp
c0104896:	83 ec 28             	sub    $0x28,%esp
c0104899:	8b 45 08             	mov    0x8(%ebp),%eax
c010489c:	8b 80 00 01 00 00    	mov    0x100(%eax),%eax
c01048a2:	89 45 f0             	mov    %eax,-0x10(%ebp)
c01048a5:	8b 45 08             	mov    0x8(%ebp),%eax
c01048a8:	8b 90 0c 01 00 00    	mov    0x10c(%eax),%edx
c01048ae:	8b 80 08 01 00 00    	mov    0x108(%eax),%eax
c01048b4:	89 c2                	mov    %eax,%edx
c01048b6:	8b 45 08             	mov    0x8(%ebp),%eax
c01048b9:	8b 80 00 01 00 00    	mov    0x100(%eax),%eax
c01048bf:	83 ec 08             	sub    $0x8,%esp
c01048c2:	52                   	push   %edx
c01048c3:	50                   	push   %eax
c01048c4:	e8 57 fc ff ff       	call   c0104520 <__k_fs_tar_read_header>
c01048c9:	83 c4 10             	add    $0x10,%esp
c01048cc:	89 45 ec             	mov    %eax,-0x14(%ebp)
c01048cf:	8b 45 ec             	mov    -0x14(%ebp),%eax
c01048d2:	83 ec 08             	sub    $0x8,%esp
c01048d5:	ff 75 0c             	push   0xc(%ebp)
c01048d8:	50                   	push   %eax
c01048d9:	e8 2f d3 ff ff       	call   c0101c0d <k_util_path_join>
c01048de:	83 c4 10             	add    $0x10,%esp
c01048e1:	89 45 e8             	mov    %eax,-0x18(%ebp)
c01048e4:	83 ec 0c             	sub    $0xc,%esp
c01048e7:	ff 75 ec             	push   -0x14(%ebp)
c01048ea:	e8 ec e4 ff ff       	call   c0102ddb <k_mem_heap_free>
c01048ef:	83 c4 10             	add    $0x10,%esp
c01048f2:	c7 45 f4 00 00 00 00 	movl   $0x0,-0xc(%ebp)
c01048f9:	e9 e5 00 00 00       	jmp    c01049e3 <__k_fs_tar_finddir+0x150>
c01048fe:	83 ec 08             	sub    $0x8,%esp
c0104901:	ff 75 f4             	push   -0xc(%ebp)
c0104904:	ff 75 f0             	push   -0x10(%ebp)
c0104907:	e8 14 fc ff ff       	call   c0104520 <__k_fs_tar_read_header>
c010490c:	83 c4 10             	add    $0x10,%esp
c010490f:	89 45 e4             	mov    %eax,-0x1c(%ebp)
c0104912:	8b 45 e4             	mov    -0x1c(%ebp),%eax
c0104915:	83 ec 0c             	sub    $0xc,%esp
c0104918:	50                   	push   %eax
c0104919:	e8 92 21 00 00       	call   c0106ab0 <strlen>
c010491e:	83 c4 10             	add    $0x10,%esp
c0104921:	85 c0                	test   %eax,%eax
c0104923:	75 18                	jne    c010493d <__k_fs_tar_finddir+0xaa>
c0104925:	83 ec 0c             	sub    $0xc,%esp
c0104928:	ff 75 e4             	push   -0x1c(%ebp)
c010492b:	e8 ab e4 ff ff       	call   c0102ddb <k_mem_heap_free>
c0104930:	83 c4 10             	add    $0x10,%esp
c0104933:	b8 00 00 00 00       	mov    $0x0,%eax
c0104938:	e9 cb 00 00 00       	jmp    c0104a08 <__k_fs_tar_finddir+0x175>
c010493d:	8b 45 e4             	mov    -0x1c(%ebp),%eax
c0104940:	83 ec 0c             	sub    $0xc,%esp
c0104943:	50                   	push   %eax
c0104944:	e8 af d0 ff ff       	call   c01019f8 <k_util_path_canonize>
c0104949:	83 c4 10             	add    $0x10,%esp
c010494c:	89 45 e0             	mov    %eax,-0x20(%ebp)
c010494f:	83 ec 08             	sub    $0x8,%esp
c0104952:	ff 75 e8             	push   -0x18(%ebp)
c0104955:	ff 75 e0             	push   -0x20(%ebp)
c0104958:	e8 50 22 00 00       	call   c0106bad <strcmp>
c010495d:	83 c4 10             	add    $0x10,%esp
c0104960:	85 c0                	test   %eax,%eax
c0104962:	75 40                	jne    c01049a4 <__k_fs_tar_finddir+0x111>
c0104964:	83 ec 0c             	sub    $0xc,%esp
c0104967:	ff 75 e8             	push   -0x18(%ebp)
c010496a:	e8 6c e4 ff ff       	call   c0102ddb <k_mem_heap_free>
c010496f:	83 c4 10             	add    $0x10,%esp
c0104972:	83 ec 0c             	sub    $0xc,%esp
c0104975:	ff 75 e4             	push   -0x1c(%ebp)
c0104978:	e8 5e e4 ff ff       	call   c0102ddb <k_mem_heap_free>
c010497d:	83 c4 10             	add    $0x10,%esp
c0104980:	83 ec 0c             	sub    $0xc,%esp
c0104983:	ff 75 e0             	push   -0x20(%ebp)
c0104986:	e8 50 e4 ff ff       	call   c0102ddb <k_mem_heap_free>
c010498b:	83 c4 10             	add    $0x10,%esp
c010498e:	83 ec 04             	sub    $0x4,%esp
c0104991:	ff 75 f4             	push   -0xc(%ebp)
c0104994:	ff 75 e4             	push   -0x1c(%ebp)
c0104997:	ff 75 f0             	push   -0x10(%ebp)
c010499a:	e8 b5 fb ff ff       	call   c0104554 <__k_fs_tar_create_node>
c010499f:	83 c4 10             	add    $0x10,%esp
c01049a2:	eb 64                	jmp    c0104a08 <__k_fs_tar_finddir+0x175>
c01049a4:	83 ec 0c             	sub    $0xc,%esp
c01049a7:	ff 75 e4             	push   -0x1c(%ebp)
c01049aa:	e8 2c e4 ff ff       	call   c0102ddb <k_mem_heap_free>
c01049af:	83 c4 10             	add    $0x10,%esp
c01049b2:	83 ec 0c             	sub    $0xc,%esp
c01049b5:	ff 75 e0             	push   -0x20(%ebp)
c01049b8:	e8 1e e4 ff ff       	call   c0102ddb <k_mem_heap_free>
c01049bd:	83 c4 10             	add    $0x10,%esp
c01049c0:	81 45 f4 00 02 00 00 	addl   $0x200,-0xc(%ebp)
c01049c7:	8b 45 f4             	mov    -0xc(%ebp),%eax
c01049ca:	25 ff 01 00 00       	and    $0x1ff,%eax
c01049cf:	85 c0                	test   %eax,%eax
c01049d1:	74 10                	je     c01049e3 <__k_fs_tar_finddir+0x150>
c01049d3:	8b 45 f4             	mov    -0xc(%ebp),%eax
c01049d6:	25 00 fe ff ff       	and    $0xfffffe00,%eax
c01049db:	05 00 02 00 00       	add    $0x200,%eax
c01049e0:	89 45 f4             	mov    %eax,-0xc(%ebp)
c01049e3:	8b 45 f0             	mov    -0x10(%ebp),%eax
c01049e6:	8b 80 10 01 00 00    	mov    0x110(%eax),%eax
c01049ec:	39 45 f4             	cmp    %eax,-0xc(%ebp)
c01049ef:	0f 82 09 ff ff ff    	jb     c01048fe <__k_fs_tar_finddir+0x6b>
c01049f5:	83 ec 0c             	sub    $0xc,%esp
c01049f8:	ff 75 e8             	push   -0x18(%ebp)
c01049fb:	e8 db e3 ff ff       	call   c0102ddb <k_mem_heap_free>
c0104a00:	83 c4 10             	add    $0x10,%esp
c0104a03:	b8 00 00 00 00       	mov    $0x0,%eax
c0104a08:	c9                   	leave
c0104a09:	c3                   	ret

c0104a0a <__k_fs_tar_mount>:
c0104a0a:	55                   	push   %ebp
c0104a0b:	89 e5                	mov    %esp,%ebp
c0104a0d:	83 ec 18             	sub    $0x18,%esp
c0104a10:	83 ec 0c             	sub    $0xc,%esp
c0104a13:	ff 75 0c             	push   0xc(%ebp)
c0104a16:	e8 20 f8 ff ff       	call   c010423b <k_fs_vfs_open>
c0104a1b:	83 c4 10             	add    $0x10,%esp
c0104a1e:	89 45 f4             	mov    %eax,-0xc(%ebp)
c0104a21:	83 7d f4 00          	cmpl   $0x0,-0xc(%ebp)
c0104a25:	75 0a                	jne    c0104a31 <__k_fs_tar_mount+0x27>
c0104a27:	b8 00 00 00 00       	mov    $0x0,%eax
c0104a2c:	e9 b1 00 00 00       	jmp    c0104ae2 <__k_fs_tar_mount+0xd8>
c0104a31:	83 ec 0c             	sub    $0xc,%esp
c0104a34:	68 2c 01 00 00       	push   $0x12c
c0104a39:	e8 2d e2 ff ff       	call   c0102c6b <k_mem_heap_alloc>
c0104a3e:	83 c4 10             	add    $0x10,%esp
c0104a41:	89 45 f0             	mov    %eax,-0x10(%ebp)
c0104a44:	83 ec 04             	sub    $0x4,%esp
c0104a47:	68 2c 01 00 00       	push   $0x12c
c0104a4c:	6a 00                	push   $0x0
c0104a4e:	ff 75 f0             	push   -0x10(%ebp)
c0104a51:	e8 d9 1e 00 00       	call   c010692f <memset>
c0104a56:	83 c4 10             	add    $0x10,%esp
c0104a59:	83 ec 08             	sub    $0x8,%esp
c0104a5c:	6a 00                	push   $0x0
c0104a5e:	ff 75 f4             	push   -0xc(%ebp)
c0104a61:	e8 ba fa ff ff       	call   c0104520 <__k_fs_tar_read_header>
c0104a66:	83 c4 10             	add    $0x10,%esp
c0104a69:	89 45 ec             	mov    %eax,-0x14(%ebp)
c0104a6c:	8b 45 ec             	mov    -0x14(%ebp),%eax
c0104a6f:	83 ec 0c             	sub    $0xc,%esp
c0104a72:	50                   	push   %eax
c0104a73:	e8 2c d1 ff ff       	call   c0101ba4 <k_util_path_filename>
c0104a78:	83 c4 10             	add    $0x10,%esp
c0104a7b:	89 45 e8             	mov    %eax,-0x18(%ebp)
c0104a7e:	8b 45 f0             	mov    -0x10(%ebp),%eax
c0104a81:	83 ec 08             	sub    $0x8,%esp
c0104a84:	ff 75 e8             	push   -0x18(%ebp)
c0104a87:	50                   	push   %eax
c0104a88:	e8 e0 1f 00 00       	call   c0106a6d <strcpy>
c0104a8d:	83 c4 10             	add    $0x10,%esp
c0104a90:	83 ec 0c             	sub    $0xc,%esp
c0104a93:	ff 75 e8             	push   -0x18(%ebp)
c0104a96:	e8 40 e3 ff ff       	call   c0102ddb <k_mem_heap_free>
c0104a9b:	83 c4 10             	add    $0x10,%esp
c0104a9e:	83 ec 0c             	sub    $0xc,%esp
c0104aa1:	ff 75 ec             	push   -0x14(%ebp)
c0104aa4:	e8 32 e3 ff ff       	call   c0102ddb <k_mem_heap_free>
c0104aa9:	83 c4 10             	add    $0x10,%esp
c0104aac:	8b 45 f0             	mov    -0x10(%ebp),%eax
c0104aaf:	8b 55 f4             	mov    -0xc(%ebp),%edx
c0104ab2:	89 90 00 01 00 00    	mov    %edx,0x100(%eax)
c0104ab8:	8b 45 f0             	mov    -0x10(%ebp),%eax
c0104abb:	c7 80 24 01 00 00 93 	movl   $0xc0104893,0x124(%eax)
c0104ac2:	48 10 c0 
c0104ac5:	8b 45 f0             	mov    -0x10(%ebp),%eax
c0104ac8:	c7 80 28 01 00 00 aa 	movl   $0xc01046aa,0x128(%eax)
c0104acf:	46 10 c0 
c0104ad2:	8b 45 f0             	mov    -0x10(%ebp),%eax
c0104ad5:	c7 80 04 01 00 00 02 	movl   $0x2,0x104(%eax)
c0104adc:	00 00 00 
c0104adf:	8b 45 f0             	mov    -0x10(%ebp),%eax
c0104ae2:	c9                   	leave
c0104ae3:	c3                   	ret

c0104ae4 <k_fs_tar_init>:
c0104ae4:	55                   	push   %ebp
c0104ae5:	89 e5                	mov    %esp,%ebp
c0104ae7:	83 ec 08             	sub    $0x8,%esp
c0104aea:	83 ec 08             	sub    $0x8,%esp
c0104aed:	68 0a 4a 10 c0       	push   $0xc0104a0a
c0104af2:	68 72 75 10 c0       	push   $0xc0107572
c0104af7:	e8 aa f4 ff ff       	call   c0103fa6 <k_fs_vfs_register_fs>
c0104afc:	83 c4 10             	add    $0x10,%esp
c0104aff:	b8 00 00 00 00       	mov    $0x0,%eax
c0104b04:	c9                   	leave
c0104b05:	c3                   	ret

c0104b06 <__k_fs_ramdisk_read>:
c0104b06:	55                   	push   %ebp
c0104b07:	89 e5                	mov    %esp,%ebp
c0104b09:	53                   	push   %ebx
c0104b0a:	83 ec 14             	sub    $0x14,%esp
c0104b0d:	8b 55 0c             	mov    0xc(%ebp),%edx
c0104b10:	8b 45 10             	mov    0x10(%ebp),%eax
c0104b13:	01 c2                	add    %eax,%edx
c0104b15:	8b 45 08             	mov    0x8(%ebp),%eax
c0104b18:	8b 80 10 01 00 00    	mov    0x110(%eax),%eax
c0104b1e:	39 d0                	cmp    %edx,%eax
c0104b20:	73 0b                	jae    c0104b2d <__k_fs_ramdisk_read+0x27>
c0104b22:	8b 45 08             	mov    0x8(%ebp),%eax
c0104b25:	8b 80 10 01 00 00    	mov    0x110(%eax),%eax
c0104b2b:	eb 03                	jmp    c0104b30 <__k_fs_ramdisk_read+0x2a>
c0104b2d:	8b 45 10             	mov    0x10(%ebp),%eax
c0104b30:	89 45 f4             	mov    %eax,-0xc(%ebp)
c0104b33:	8b 45 08             	mov    0x8(%ebp),%eax
c0104b36:	8b 90 0c 01 00 00    	mov    0x10c(%eax),%edx
c0104b3c:	8b 80 08 01 00 00    	mov    0x108(%eax),%eax
c0104b42:	8b 4d 0c             	mov    0xc(%ebp),%ecx
c0104b45:	bb 00 00 00 00       	mov    $0x0,%ebx
c0104b4a:	01 c8                	add    %ecx,%eax
c0104b4c:	11 da                	adc    %ebx,%edx
c0104b4e:	83 ec 04             	sub    $0x4,%esp
c0104b51:	ff 75 f4             	push   -0xc(%ebp)
c0104b54:	50                   	push   %eax
c0104b55:	ff 75 14             	push   0x14(%ebp)
c0104b58:	e8 fd 1d 00 00       	call   c010695a <memcpy>
c0104b5d:	83 c4 10             	add    $0x10,%esp
c0104b60:	8b 45 f4             	mov    -0xc(%ebp),%eax
c0104b63:	8b 5d fc             	mov    -0x4(%ebp),%ebx
c0104b66:	c9                   	leave
c0104b67:	c3                   	ret

c0104b68 <k_fs_ramdisk_mount>:
c0104b68:	55                   	push   %ebp
c0104b69:	89 e5                	mov    %esp,%ebp
c0104b6b:	81 ec 18 11 00 00    	sub    $0x1118,%esp
c0104b71:	83 ec 04             	sub    $0x4,%esp
c0104b74:	68 00 10 00 00       	push   $0x1000
c0104b79:	6a 00                	push   $0x0
c0104b7b:	8d 85 f4 ef ff ff    	lea    -0x100c(%ebp),%eax
c0104b81:	50                   	push   %eax
c0104b82:	e8 a8 1d 00 00       	call   c010692f <memset>
c0104b87:	83 c4 10             	add    $0x10,%esp
c0104b8a:	83 ec 04             	sub    $0x4,%esp
c0104b8d:	68 ff 00 00 00       	push   $0xff
c0104b92:	6a 00                	push   $0x0
c0104b94:	8d 85 f5 ee ff ff    	lea    -0x110b(%ebp),%eax
c0104b9a:	50                   	push   %eax
c0104b9b:	e8 8f 1d 00 00       	call   c010692f <memset>
c0104ba0:	83 c4 10             	add    $0x10,%esp
c0104ba3:	a1 58 bd 10 c0       	mov    0xc010bd58,%eax
c0104ba8:	83 ec 04             	sub    $0x4,%esp
c0104bab:	50                   	push   %eax
c0104bac:	68 78 75 10 c0       	push   $0xc0107578
c0104bb1:	8d 85 f5 ee ff ff    	lea    -0x110b(%ebp),%eax
c0104bb7:	50                   	push   %eax
c0104bb8:	e8 8c 1c 00 00       	call   c0106849 <sprintf_>
c0104bbd:	83 c4 10             	add    $0x10,%esp
c0104bc0:	83 ec 04             	sub    $0x4,%esp
c0104bc3:	8d 85 f5 ee ff ff    	lea    -0x110b(%ebp),%eax
c0104bc9:	50                   	push   %eax
c0104bca:	68 7e 75 10 c0       	push   $0xc010757e
c0104bcf:	8d 85 f4 ef ff ff    	lea    -0x100c(%ebp),%eax
c0104bd5:	50                   	push   %eax
c0104bd6:	e8 6e 1c 00 00       	call   c0106849 <sprintf_>
c0104bdb:	83 c4 10             	add    $0x10,%esp
c0104bde:	a1 58 bd 10 c0       	mov    0xc010bd58,%eax
c0104be3:	83 c0 01             	add    $0x1,%eax
c0104be6:	a3 58 bd 10 c0       	mov    %eax,0xc010bd58
c0104beb:	83 ec 04             	sub    $0x4,%esp
c0104bee:	8d 85 f4 ef ff ff    	lea    -0x100c(%ebp),%eax
c0104bf4:	50                   	push   %eax
c0104bf5:	ff 75 08             	push   0x8(%ebp)
c0104bf8:	68 88 75 10 c0       	push   $0xc0107588
c0104bfd:	e8 5e cd ff ff       	call   c0101960 <k_info>
c0104c02:	83 c4 10             	add    $0x10,%esp
c0104c05:	83 ec 0c             	sub    $0xc,%esp
c0104c08:	8d 85 f5 ee ff ff    	lea    -0x110b(%ebp),%eax
c0104c0e:	50                   	push   %eax
c0104c0f:	e8 42 f5 ff ff       	call   c0104156 <k_fs_vfs_create_node>
c0104c14:	83 c4 10             	add    $0x10,%esp
c0104c17:	89 45 f4             	mov    %eax,-0xc(%ebp)
c0104c1a:	8b 45 08             	mov    0x8(%ebp),%eax
c0104c1d:	ba 00 00 00 00       	mov    $0x0,%edx
c0104c22:	8b 4d f4             	mov    -0xc(%ebp),%ecx
c0104c25:	89 81 08 01 00 00    	mov    %eax,0x108(%ecx)
c0104c2b:	89 91 0c 01 00 00    	mov    %edx,0x10c(%ecx)
c0104c31:	8b 45 f4             	mov    -0xc(%ebp),%eax
c0104c34:	8b 55 0c             	mov    0xc(%ebp),%edx
c0104c37:	89 90 10 01 00 00    	mov    %edx,0x110(%eax)
c0104c3d:	8b 45 f4             	mov    -0xc(%ebp),%eax
c0104c40:	c7 80 18 01 00 00 06 	movl   $0xc0104b06,0x118(%eax)
c0104c47:	4b 10 c0 
c0104c4a:	83 ec 08             	sub    $0x8,%esp
c0104c4d:	ff 75 f4             	push   -0xc(%ebp)
c0104c50:	8d 85 f4 ef ff ff    	lea    -0x100c(%ebp),%eax
c0104c56:	50                   	push   %eax
c0104c57:	e8 c6 f6 ff ff       	call   c0104322 <k_fs_vfs_mount_node>
c0104c5c:	83 c4 10             	add    $0x10,%esp
c0104c5f:	8b 45 f4             	mov    -0xc(%ebp),%eax
c0104c62:	c9                   	leave
c0104c63:	c3                   	ret

c0104c64 <k_mod_load_modules>:
c0104c64:	55                   	push   %ebp
c0104c65:	89 e5                	mov    %esp,%ebp
c0104c67:	83 ec 28             	sub    $0x28,%esp
c0104c6a:	8b 45 08             	mov    0x8(%ebp),%eax
c0104c6d:	8b 40 18             	mov    0x18(%eax),%eax
c0104c70:	2d 00 00 00 40       	sub    $0x40000000,%eax
c0104c75:	89 45 f0             	mov    %eax,-0x10(%ebp)
c0104c78:	c7 45 f4 00 00 00 00 	movl   $0x0,-0xc(%ebp)
c0104c7f:	eb 79                	jmp    c0104cfa <k_mod_load_modules+0x96>
c0104c81:	8b 45 f0             	mov    -0x10(%ebp),%eax
c0104c84:	8b 00                	mov    (%eax),%eax
c0104c86:	2d 00 00 00 40       	sub    $0x40000000,%eax
c0104c8b:	89 45 ec             	mov    %eax,-0x14(%ebp)
c0104c8e:	8b 45 f0             	mov    -0x10(%ebp),%eax
c0104c91:	8b 40 04             	mov    0x4(%eax),%eax
c0104c94:	2d 00 00 00 40       	sub    $0x40000000,%eax
c0104c99:	89 45 e8             	mov    %eax,-0x18(%ebp)
c0104c9c:	8b 45 f4             	mov    -0xc(%ebp),%eax
c0104c9f:	c1 e0 04             	shl    $0x4,%eax
c0104ca2:	89 c2                	mov    %eax,%edx
c0104ca4:	8b 45 f0             	mov    -0x10(%ebp),%eax
c0104ca7:	01 d0                	add    %edx,%eax
c0104ca9:	8b 40 08             	mov    0x8(%eax),%eax
c0104cac:	2d 00 00 00 40       	sub    $0x40000000,%eax
c0104cb1:	89 45 e4             	mov    %eax,-0x1c(%ebp)
c0104cb4:	ff 75 e4             	push   -0x1c(%ebp)
c0104cb7:	ff 75 e8             	push   -0x18(%ebp)
c0104cba:	ff 75 ec             	push   -0x14(%ebp)
c0104cbd:	68 a8 75 10 c0       	push   $0xc01075a8
c0104cc2:	e8 99 cc ff ff       	call   c0101960 <k_info>
c0104cc7:	83 c4 10             	add    $0x10,%esp
c0104cca:	83 ec 08             	sub    $0x8,%esp
c0104ccd:	68 ca 75 10 c0       	push   $0xc01075ca
c0104cd2:	ff 75 e4             	push   -0x1c(%ebp)
c0104cd5:	e8 d3 1e 00 00       	call   c0106bad <strcmp>
c0104cda:	83 c4 10             	add    $0x10,%esp
c0104cdd:	85 c0                	test   %eax,%eax
c0104cdf:	75 15                	jne    c0104cf6 <k_mod_load_modules+0x92>
c0104ce1:	8b 45 e8             	mov    -0x18(%ebp),%eax
c0104ce4:	2b 45 ec             	sub    -0x14(%ebp),%eax
c0104ce7:	83 ec 08             	sub    $0x8,%esp
c0104cea:	50                   	push   %eax
c0104ceb:	ff 75 ec             	push   -0x14(%ebp)
c0104cee:	e8 75 fe ff ff       	call   c0104b68 <k_fs_ramdisk_mount>
c0104cf3:	83 c4 10             	add    $0x10,%esp
c0104cf6:	83 45 f4 01          	addl   $0x1,-0xc(%ebp)
c0104cfa:	8b 45 08             	mov    0x8(%ebp),%eax
c0104cfd:	8b 40 14             	mov    0x14(%eax),%eax
c0104d00:	39 45 f4             	cmp    %eax,-0xc(%ebp)
c0104d03:	0f 82 78 ff ff ff    	jb     c0104c81 <k_mod_load_modules+0x1d>
c0104d09:	b8 00 00 00 00       	mov    $0x0,%eax
c0104d0e:	c9                   	leave
c0104d0f:	c3                   	ret

c0104d10 <__k_mod_elf_check>:
c0104d10:	55                   	push   %ebp
c0104d11:	89 e5                	mov    %esp,%ebp
c0104d13:	8b 45 08             	mov    0x8(%ebp),%eax
c0104d16:	0f b6 00             	movzbl (%eax),%eax
c0104d19:	3c 7f                	cmp    $0x7f,%al
c0104d1b:	75 56                	jne    c0104d73 <__k_mod_elf_check+0x63>
c0104d1d:	8b 45 08             	mov    0x8(%ebp),%eax
c0104d20:	0f b6 40 01          	movzbl 0x1(%eax),%eax
c0104d24:	3c 45                	cmp    $0x45,%al
c0104d26:	75 4b                	jne    c0104d73 <__k_mod_elf_check+0x63>
c0104d28:	8b 45 08             	mov    0x8(%ebp),%eax
c0104d2b:	0f b6 40 02          	movzbl 0x2(%eax),%eax
c0104d2f:	3c 4c                	cmp    $0x4c,%al
c0104d31:	75 40                	jne    c0104d73 <__k_mod_elf_check+0x63>
c0104d33:	8b 45 08             	mov    0x8(%ebp),%eax
c0104d36:	0f b6 40 03          	movzbl 0x3(%eax),%eax
c0104d3a:	3c 46                	cmp    $0x46,%al
c0104d3c:	75 35                	jne    c0104d73 <__k_mod_elf_check+0x63>
c0104d3e:	8b 45 08             	mov    0x8(%ebp),%eax
c0104d41:	0f b6 40 04          	movzbl 0x4(%eax),%eax
c0104d45:	3c 01                	cmp    $0x1,%al
c0104d47:	75 2a                	jne    c0104d73 <__k_mod_elf_check+0x63>
c0104d49:	8b 45 08             	mov    0x8(%ebp),%eax
c0104d4c:	0f b6 40 05          	movzbl 0x5(%eax),%eax
c0104d50:	3c 01                	cmp    $0x1,%al
c0104d52:	75 1f                	jne    c0104d73 <__k_mod_elf_check+0x63>
c0104d54:	8b 45 08             	mov    0x8(%ebp),%eax
c0104d57:	0f b7 40 12          	movzwl 0x12(%eax),%eax
c0104d5b:	66 83 f8 03          	cmp    $0x3,%ax
c0104d5f:	75 12                	jne    c0104d73 <__k_mod_elf_check+0x63>
c0104d61:	8b 45 08             	mov    0x8(%ebp),%eax
c0104d64:	8b 40 14             	mov    0x14(%eax),%eax
c0104d67:	83 f8 01             	cmp    $0x1,%eax
c0104d6a:	75 07                	jne    c0104d73 <__k_mod_elf_check+0x63>
c0104d6c:	b8 01 00 00 00       	mov    $0x1,%eax
c0104d71:	eb 05                	jmp    c0104d78 <__k_mod_elf_check+0x68>
c0104d73:	b8 00 00 00 00       	mov    $0x0,%eax
c0104d78:	5d                   	pop    %ebp
c0104d79:	c3                   	ret

c0104d7a <__k_mod_elf_load_exec>:
c0104d7a:	55                   	push   %ebp
c0104d7b:	89 e5                	mov    %esp,%ebp
c0104d7d:	83 ec 18             	sub    $0x18,%esp
c0104d80:	8b 45 08             	mov    0x8(%ebp),%eax
c0104d83:	8b 40 1c             	mov    0x1c(%eax),%eax
c0104d86:	85 c0                	test   %eax,%eax
c0104d88:	75 0a                	jne    c0104d94 <__k_mod_elf_load_exec+0x1a>
c0104d8a:	b8 01 00 00 00       	mov    $0x1,%eax
c0104d8f:	e9 b9 00 00 00       	jmp    c0104e4d <__k_mod_elf_load_exec+0xd3>
c0104d94:	8b 45 08             	mov    0x8(%ebp),%eax
c0104d97:	8b 50 1c             	mov    0x1c(%eax),%edx
c0104d9a:	8b 45 08             	mov    0x8(%ebp),%eax
c0104d9d:	01 d0                	add    %edx,%eax
c0104d9f:	89 45 f4             	mov    %eax,-0xc(%ebp)
c0104da2:	c7 45 f0 00 00 00 00 	movl   $0x0,-0x10(%ebp)
c0104da9:	e9 87 00 00 00       	jmp    c0104e35 <__k_mod_elf_load_exec+0xbb>
c0104dae:	8b 45 f4             	mov    -0xc(%ebp),%eax
c0104db1:	8b 00                	mov    (%eax),%eax
c0104db3:	83 f8 01             	cmp    $0x1,%eax
c0104db6:	75 67                	jne    c0104e1f <__k_mod_elf_load_exec+0xa5>
c0104db8:	8b 45 f4             	mov    -0xc(%ebp),%eax
c0104dbb:	8b 40 14             	mov    0x14(%eax),%eax
c0104dbe:	c1 e8 0c             	shr    $0xc,%eax
c0104dc1:	8d 50 01             	lea    0x1(%eax),%edx
c0104dc4:	8b 45 f4             	mov    -0xc(%ebp),%eax
c0104dc7:	8b 40 08             	mov    0x8(%eax),%eax
c0104dca:	83 ec 0c             	sub    $0xc,%esp
c0104dcd:	6a 00                	push   $0x0
c0104dcf:	6a 03                	push   $0x3
c0104dd1:	52                   	push   %edx
c0104dd2:	6a 00                	push   $0x0
c0104dd4:	50                   	push   %eax
c0104dd5:	e8 02 d6 ff ff       	call   c01023dc <k_mem_paging_map_region>
c0104dda:	83 c4 20             	add    $0x20,%esp
c0104ddd:	8b 45 f4             	mov    -0xc(%ebp),%eax
c0104de0:	8b 40 14             	mov    0x14(%eax),%eax
c0104de3:	8b 55 f4             	mov    -0xc(%ebp),%edx
c0104de6:	8b 52 08             	mov    0x8(%edx),%edx
c0104de9:	83 ec 04             	sub    $0x4,%esp
c0104dec:	50                   	push   %eax
c0104ded:	6a 00                	push   $0x0
c0104def:	52                   	push   %edx
c0104df0:	e8 3a 1b 00 00       	call   c010692f <memset>
c0104df5:	83 c4 10             	add    $0x10,%esp
c0104df8:	8b 45 f4             	mov    -0xc(%ebp),%eax
c0104dfb:	8b 40 10             	mov    0x10(%eax),%eax
c0104dfe:	8b 55 f4             	mov    -0xc(%ebp),%edx
c0104e01:	8b 4a 04             	mov    0x4(%edx),%ecx
c0104e04:	8b 55 08             	mov    0x8(%ebp),%edx
c0104e07:	01 ca                	add    %ecx,%edx
c0104e09:	89 d1                	mov    %edx,%ecx
c0104e0b:	8b 55 f4             	mov    -0xc(%ebp),%edx
c0104e0e:	8b 52 08             	mov    0x8(%edx),%edx
c0104e11:	83 ec 04             	sub    $0x4,%esp
c0104e14:	50                   	push   %eax
c0104e15:	51                   	push   %ecx
c0104e16:	52                   	push   %edx
c0104e17:	e8 3e 1b 00 00       	call   c010695a <memcpy>
c0104e1c:	83 c4 10             	add    $0x10,%esp
c0104e1f:	8b 45 08             	mov    0x8(%ebp),%eax
c0104e22:	0f b7 40 2a          	movzwl 0x2a(%eax),%eax
c0104e26:	0f b7 d0             	movzwl %ax,%edx
c0104e29:	8b 45 f4             	mov    -0xc(%ebp),%eax
c0104e2c:	01 d0                	add    %edx,%eax
c0104e2e:	89 45 f4             	mov    %eax,-0xc(%ebp)
c0104e31:	83 45 f0 01          	addl   $0x1,-0x10(%ebp)
c0104e35:	8b 45 08             	mov    0x8(%ebp),%eax
c0104e38:	0f b7 40 2c          	movzwl 0x2c(%eax),%eax
c0104e3c:	0f b7 c0             	movzwl %ax,%eax
c0104e3f:	39 45 f0             	cmp    %eax,-0x10(%ebp)
c0104e42:	0f 82 66 ff ff ff    	jb     c0104dae <__k_mod_elf_load_exec+0x34>
c0104e48:	b8 00 00 00 00       	mov    $0x0,%eax
c0104e4d:	c9                   	leave
c0104e4e:	c3                   	ret

c0104e4f <__k_mod_elf_load_rel>:
c0104e4f:	55                   	push   %ebp
c0104e50:	89 e5                	mov    %esp,%ebp
c0104e52:	83 ec 10             	sub    $0x10,%esp
c0104e55:	8b 45 08             	mov    0x8(%ebp),%eax
c0104e58:	8b 40 20             	mov    0x20(%eax),%eax
c0104e5b:	85 c0                	test   %eax,%eax
c0104e5d:	75 07                	jne    c0104e66 <__k_mod_elf_load_rel+0x17>
c0104e5f:	b8 01 00 00 00       	mov    $0x1,%eax
c0104e64:	eb 41                	jmp    c0104ea7 <__k_mod_elf_load_rel+0x58>
c0104e66:	8b 45 08             	mov    0x8(%ebp),%eax
c0104e69:	8b 50 20             	mov    0x20(%eax),%edx
c0104e6c:	8b 45 08             	mov    0x8(%ebp),%eax
c0104e6f:	01 d0                	add    %edx,%eax
c0104e71:	89 45 fc             	mov    %eax,-0x4(%ebp)
c0104e74:	c7 45 f8 00 00 00 00 	movl   $0x0,-0x8(%ebp)
c0104e7b:	eb 16                	jmp    c0104e93 <__k_mod_elf_load_rel+0x44>
c0104e7d:	8b 45 08             	mov    0x8(%ebp),%eax
c0104e80:	0f b7 40 2e          	movzwl 0x2e(%eax),%eax
c0104e84:	0f b7 d0             	movzwl %ax,%edx
c0104e87:	8b 45 fc             	mov    -0x4(%ebp),%eax
c0104e8a:	01 d0                	add    %edx,%eax
c0104e8c:	89 45 fc             	mov    %eax,-0x4(%ebp)
c0104e8f:	83 45 f8 01          	addl   $0x1,-0x8(%ebp)
c0104e93:	8b 45 08             	mov    0x8(%ebp),%eax
c0104e96:	0f b7 40 30          	movzwl 0x30(%eax),%eax
c0104e9a:	0f b7 c0             	movzwl %ax,%eax
c0104e9d:	39 45 f8             	cmp    %eax,-0x8(%ebp)
c0104ea0:	72 db                	jb     c0104e7d <__k_mod_elf_load_rel+0x2e>
c0104ea2:	b8 00 00 00 00       	mov    $0x0,%eax
c0104ea7:	c9                   	leave
c0104ea8:	c3                   	ret

c0104ea9 <k_mod_elf_load>:
c0104ea9:	55                   	push   %ebp
c0104eaa:	89 e5                	mov    %esp,%ebp
c0104eac:	83 ec 18             	sub    $0x18,%esp
c0104eaf:	8b 45 08             	mov    0x8(%ebp),%eax
c0104eb2:	89 45 f4             	mov    %eax,-0xc(%ebp)
c0104eb5:	ff 75 f4             	push   -0xc(%ebp)
c0104eb8:	e8 53 fe ff ff       	call   c0104d10 <__k_mod_elf_check>
c0104ebd:	83 c4 04             	add    $0x4,%esp
c0104ec0:	84 c0                	test   %al,%al
c0104ec2:	75 07                	jne    c0104ecb <k_mod_elf_load+0x22>
c0104ec4:	b8 01 00 00 00       	mov    $0x1,%eax
c0104ec9:	eb 3f                	jmp    c0104f0a <k_mod_elf_load+0x61>
c0104ecb:	8b 45 f4             	mov    -0xc(%ebp),%eax
c0104ece:	0f b7 40 10          	movzwl 0x10(%eax),%eax
c0104ed2:	66 83 f8 02          	cmp    $0x2,%ax
c0104ed6:	75 10                	jne    c0104ee8 <k_mod_elf_load+0x3f>
c0104ed8:	83 ec 0c             	sub    $0xc,%esp
c0104edb:	ff 75 f4             	push   -0xc(%ebp)
c0104ede:	e8 97 fe ff ff       	call   c0104d7a <__k_mod_elf_load_exec>
c0104ee3:	83 c4 10             	add    $0x10,%esp
c0104ee6:	eb 22                	jmp    c0104f0a <k_mod_elf_load+0x61>
c0104ee8:	8b 45 f4             	mov    -0xc(%ebp),%eax
c0104eeb:	0f b7 40 10          	movzwl 0x10(%eax),%eax
c0104eef:	66 83 f8 01          	cmp    $0x1,%ax
c0104ef3:	75 10                	jne    c0104f05 <k_mod_elf_load+0x5c>
c0104ef5:	83 ec 0c             	sub    $0xc,%esp
c0104ef8:	ff 75 f4             	push   -0xc(%ebp)
c0104efb:	e8 4f ff ff ff       	call   c0104e4f <__k_mod_elf_load_rel>
c0104f00:	83 c4 10             	add    $0x10,%esp
c0104f03:	eb 05                	jmp    c0104f0a <k_mod_elf_load+0x61>
c0104f05:	b8 00 00 00 00       	mov    $0x0,%eax
c0104f0a:	c9                   	leave
c0104f0b:	c3                   	ret

c0104f0c <k_mod_symtable_init>:
c0104f0c:	55                   	push   %ebp
c0104f0d:	89 e5                	mov    %esp,%ebp
c0104f0f:	83 ec 18             	sub    $0x18,%esp
c0104f12:	c7 05 60 bd 10 c0 00 	movl   $0x0,0xc010bd60
c0104f19:	00 00 00 
c0104f1c:	c7 45 f4 60 78 10 c0 	movl   $0xc0107860,-0xc(%ebp)
c0104f23:	e9 86 00 00 00       	jmp    c0104fae <k_mod_symtable_init+0xa2>
c0104f28:	a1 60 bd 10 c0       	mov    0xc010bd60,%eax
c0104f2d:	83 c0 01             	add    $0x1,%eax
c0104f30:	a3 60 bd 10 c0       	mov    %eax,0xc010bd60
c0104f35:	a1 60 bd 10 c0       	mov    0xc010bd60,%eax
c0104f3a:	83 f8 01             	cmp    $0x1,%eax
c0104f3d:	75 14                	jne    c0104f53 <k_mod_symtable_init+0x47>
c0104f3f:	83 ec 0c             	sub    $0xc,%esp
c0104f42:	6a 04                	push   $0x4
c0104f44:	e8 22 dd ff ff       	call   c0102c6b <k_mem_heap_alloc>
c0104f49:	83 c4 10             	add    $0x10,%esp
c0104f4c:	a3 5c bd 10 c0       	mov    %eax,0xc010bd5c
c0104f51:	eb 23                	jmp    c0104f76 <k_mod_symtable_init+0x6a>
c0104f53:	a1 60 bd 10 c0       	mov    0xc010bd60,%eax
c0104f58:	8d 14 85 00 00 00 00 	lea    0x0(,%eax,4),%edx
c0104f5f:	a1 5c bd 10 c0       	mov    0xc010bd5c,%eax
c0104f64:	83 ec 08             	sub    $0x8,%esp
c0104f67:	52                   	push   %edx
c0104f68:	50                   	push   %eax
c0104f69:	e8 b3 de ff ff       	call   c0102e21 <k_mem_heap_realloc>
c0104f6e:	83 c4 10             	add    $0x10,%esp
c0104f71:	a3 5c bd 10 c0       	mov    %eax,0xc010bd5c
c0104f76:	a1 5c bd 10 c0       	mov    0xc010bd5c,%eax
c0104f7b:	8b 15 60 bd 10 c0    	mov    0xc010bd60,%edx
c0104f81:	81 c2 ff ff ff 3f    	add    $0x3fffffff,%edx
c0104f87:	c1 e2 02             	shl    $0x2,%edx
c0104f8a:	01 c2                	add    %eax,%edx
c0104f8c:	8b 45 f4             	mov    -0xc(%ebp),%eax
c0104f8f:	89 02                	mov    %eax,(%edx)
c0104f91:	8b 45 f4             	mov    -0xc(%ebp),%eax
c0104f94:	83 c0 04             	add    $0x4,%eax
c0104f97:	83 ec 0c             	sub    $0xc,%esp
c0104f9a:	50                   	push   %eax
c0104f9b:	e8 10 1b 00 00       	call   c0106ab0 <strlen>
c0104fa0:	83 c4 10             	add    $0x10,%esp
c0104fa3:	8b 55 f4             	mov    -0xc(%ebp),%edx
c0104fa6:	01 d0                	add    %edx,%eax
c0104fa8:	83 c0 05             	add    $0x5,%eax
c0104fab:	89 45 f4             	mov    %eax,-0xc(%ebp)
c0104fae:	8b 45 f4             	mov    -0xc(%ebp),%eax
c0104fb1:	ba 18 8b 10 c0       	mov    $0xc0108b18,%edx
c0104fb6:	39 d0                	cmp    %edx,%eax
c0104fb8:	0f 82 6a ff ff ff    	jb     c0104f28 <k_mod_symtable_init+0x1c>
c0104fbe:	a1 60 bd 10 c0       	mov    0xc010bd60,%eax
c0104fc3:	83 ec 08             	sub    $0x8,%esp
c0104fc6:	50                   	push   %eax
c0104fc7:	68 d2 75 10 c0       	push   $0xc01075d2
c0104fcc:	e8 8f c9 ff ff       	call   c0101960 <k_info>
c0104fd1:	83 c4 10             	add    $0x10,%esp
c0104fd4:	b8 00 00 00 00       	mov    $0x0,%eax
c0104fd9:	c9                   	leave
c0104fda:	c3                   	ret

c0104fdb <k_mod_symtable_get_symbol>:
c0104fdb:	55                   	push   %ebp
c0104fdc:	89 e5                	mov    %esp,%ebp
c0104fde:	83 ec 18             	sub    $0x18,%esp
c0104fe1:	c7 45 f4 00 00 00 00 	movl   $0x0,-0xc(%ebp)
c0104fe8:	eb 3c                	jmp    c0105026 <k_mod_symtable_get_symbol+0x4b>
c0104fea:	a1 5c bd 10 c0       	mov    0xc010bd5c,%eax
c0104fef:	8b 55 f4             	mov    -0xc(%ebp),%edx
c0104ff2:	c1 e2 02             	shl    $0x2,%edx
c0104ff5:	01 d0                	add    %edx,%eax
c0104ff7:	8b 00                	mov    (%eax),%eax
c0104ff9:	83 c0 04             	add    $0x4,%eax
c0104ffc:	83 ec 08             	sub    $0x8,%esp
c0104fff:	50                   	push   %eax
c0105000:	ff 75 08             	push   0x8(%ebp)
c0105003:	e8 a5 1b 00 00       	call   c0106bad <strcmp>
c0105008:	83 c4 10             	add    $0x10,%esp
c010500b:	85 c0                	test   %eax,%eax
c010500d:	75 13                	jne    c0105022 <k_mod_symtable_get_symbol+0x47>
c010500f:	a1 5c bd 10 c0       	mov    0xc010bd5c,%eax
c0105014:	8b 55 f4             	mov    -0xc(%ebp),%edx
c0105017:	c1 e2 02             	shl    $0x2,%edx
c010501a:	01 d0                	add    %edx,%eax
c010501c:	8b 00                	mov    (%eax),%eax
c010501e:	8b 00                	mov    (%eax),%eax
c0105020:	eb 13                	jmp    c0105035 <k_mod_symtable_get_symbol+0x5a>
c0105022:	83 45 f4 01          	addl   $0x1,-0xc(%ebp)
c0105026:	a1 60 bd 10 c0       	mov    0xc010bd60,%eax
c010502b:	39 45 f4             	cmp    %eax,-0xc(%ebp)
c010502e:	72 ba                	jb     c0104fea <k_mod_symtable_get_symbol+0xf>
c0105030:	b8 00 00 00 00       	mov    $0x0,%eax
c0105035:	c9                   	leave
c0105036:	c3                   	ret

c0105037 <k_mod_symtable_get_nearest_symbol>:
c0105037:	55                   	push   %ebp
c0105038:	89 e5                	mov    %esp,%ebp
c010503a:	83 ec 10             	sub    $0x10,%esp
c010503d:	c7 45 fc ff ff ff ff 	movl   $0xffffffff,-0x4(%ebp)
c0105044:	c7 45 f8 00 00 00 00 	movl   $0x0,-0x8(%ebp)
c010504b:	c7 45 f4 00 00 00 00 	movl   $0x0,-0xc(%ebp)
c0105052:	eb 63                	jmp    c01050b7 <k_mod_symtable_get_nearest_symbol+0x80>
c0105054:	a1 5c bd 10 c0       	mov    0xc010bd5c,%eax
c0105059:	8b 55 f4             	mov    -0xc(%ebp),%edx
c010505c:	c1 e2 02             	shl    $0x2,%edx
c010505f:	01 d0                	add    %edx,%eax
c0105061:	8b 00                	mov    (%eax),%eax
c0105063:	8b 00                	mov    (%eax),%eax
c0105065:	39 45 08             	cmp    %eax,0x8(%ebp)
c0105068:	72 48                	jb     c01050b2 <k_mod_symtable_get_nearest_symbol+0x7b>
c010506a:	a1 5c bd 10 c0       	mov    0xc010bd5c,%eax
c010506f:	8b 55 f4             	mov    -0xc(%ebp),%edx
c0105072:	c1 e2 02             	shl    $0x2,%edx
c0105075:	01 d0                	add    %edx,%eax
c0105077:	8b 00                	mov    (%eax),%eax
c0105079:	8b 00                	mov    (%eax),%eax
c010507b:	8b 55 08             	mov    0x8(%ebp),%edx
c010507e:	29 c2                	sub    %eax,%edx
c0105080:	3b 55 fc             	cmp    -0x4(%ebp),%edx
c0105083:	73 2e                	jae    c01050b3 <k_mod_symtable_get_nearest_symbol+0x7c>
c0105085:	a1 5c bd 10 c0       	mov    0xc010bd5c,%eax
c010508a:	8b 55 f4             	mov    -0xc(%ebp),%edx
c010508d:	c1 e2 02             	shl    $0x2,%edx
c0105090:	01 d0                	add    %edx,%eax
c0105092:	8b 00                	mov    (%eax),%eax
c0105094:	8b 00                	mov    (%eax),%eax
c0105096:	8b 55 08             	mov    0x8(%ebp),%edx
c0105099:	29 c2                	sub    %eax,%edx
c010509b:	89 55 fc             	mov    %edx,-0x4(%ebp)
c010509e:	a1 5c bd 10 c0       	mov    0xc010bd5c,%eax
c01050a3:	8b 55 f4             	mov    -0xc(%ebp),%edx
c01050a6:	c1 e2 02             	shl    $0x2,%edx
c01050a9:	01 d0                	add    %edx,%eax
c01050ab:	8b 00                	mov    (%eax),%eax
c01050ad:	89 45 f8             	mov    %eax,-0x8(%ebp)
c01050b0:	eb 01                	jmp    c01050b3 <k_mod_symtable_get_nearest_symbol+0x7c>
c01050b2:	90                   	nop
c01050b3:	83 45 f4 01          	addl   $0x1,-0xc(%ebp)
c01050b7:	a1 60 bd 10 c0       	mov    0xc010bd60,%eax
c01050bc:	39 45 f4             	cmp    %eax,-0xc(%ebp)
c01050bf:	72 93                	jb     c0105054 <k_mod_symtable_get_nearest_symbol+0x1d>
c01050c1:	8b 45 f8             	mov    -0x8(%ebp),%eax
c01050c4:	c9                   	leave
c01050c5:	c3                   	ret

c01050c6 <_out_buffer>:
c01050c6:	55                   	push   %ebp
c01050c7:	89 e5                	mov    %esp,%ebp
c01050c9:	83 ec 04             	sub    $0x4,%esp
c01050cc:	8b 45 08             	mov    0x8(%ebp),%eax
c01050cf:	88 45 fc             	mov    %al,-0x4(%ebp)
c01050d2:	8b 45 10             	mov    0x10(%ebp),%eax
c01050d5:	3b 45 14             	cmp    0x14(%ebp),%eax
c01050d8:	73 0e                	jae    c01050e8 <_out_buffer+0x22>
c01050da:	8b 55 0c             	mov    0xc(%ebp),%edx
c01050dd:	8b 45 10             	mov    0x10(%ebp),%eax
c01050e0:	01 c2                	add    %eax,%edx
c01050e2:	0f b6 45 fc          	movzbl -0x4(%ebp),%eax
c01050e6:	88 02                	mov    %al,(%edx)
c01050e8:	90                   	nop
c01050e9:	c9                   	leave
c01050ea:	c3                   	ret

c01050eb <_out_null>:
c01050eb:	55                   	push   %ebp
c01050ec:	89 e5                	mov    %esp,%ebp
c01050ee:	83 ec 04             	sub    $0x4,%esp
c01050f1:	8b 45 08             	mov    0x8(%ebp),%eax
c01050f4:	88 45 fc             	mov    %al,-0x4(%ebp)
c01050f7:	90                   	nop
c01050f8:	c9                   	leave
c01050f9:	c3                   	ret

c01050fa <_out_char>:
c01050fa:	55                   	push   %ebp
c01050fb:	89 e5                	mov    %esp,%ebp
c01050fd:	83 ec 18             	sub    $0x18,%esp
c0105100:	8b 45 08             	mov    0x8(%ebp),%eax
c0105103:	88 45 f4             	mov    %al,-0xc(%ebp)
c0105106:	80 7d f4 00          	cmpb   $0x0,-0xc(%ebp)
c010510a:	74 10                	je     c010511c <_out_char+0x22>
c010510c:	0f be 45 f4          	movsbl -0xc(%ebp),%eax
c0105110:	83 ec 0c             	sub    $0xc,%esp
c0105113:	50                   	push   %eax
c0105114:	e8 b9 c5 ff ff       	call   c01016d2 <_putchar>
c0105119:	83 c4 10             	add    $0x10,%esp
c010511c:	90                   	nop
c010511d:	c9                   	leave
c010511e:	c3                   	ret

c010511f <_out_fct>:
c010511f:	55                   	push   %ebp
c0105120:	89 e5                	mov    %esp,%ebp
c0105122:	83 ec 18             	sub    $0x18,%esp
c0105125:	8b 45 08             	mov    0x8(%ebp),%eax
c0105128:	88 45 f4             	mov    %al,-0xc(%ebp)
c010512b:	80 7d f4 00          	cmpb   $0x0,-0xc(%ebp)
c010512f:	74 19                	je     c010514a <_out_fct+0x2b>
c0105131:	8b 45 0c             	mov    0xc(%ebp),%eax
c0105134:	8b 00                	mov    (%eax),%eax
c0105136:	8b 55 0c             	mov    0xc(%ebp),%edx
c0105139:	8b 4a 04             	mov    0x4(%edx),%ecx
c010513c:	0f be 55 f4          	movsbl -0xc(%ebp),%edx
c0105140:	83 ec 08             	sub    $0x8,%esp
c0105143:	51                   	push   %ecx
c0105144:	52                   	push   %edx
c0105145:	ff d0                	call   *%eax
c0105147:	83 c4 10             	add    $0x10,%esp
c010514a:	90                   	nop
c010514b:	c9                   	leave
c010514c:	c3                   	ret

c010514d <_strnlen_s>:
c010514d:	55                   	push   %ebp
c010514e:	89 e5                	mov    %esp,%ebp
c0105150:	83 ec 10             	sub    $0x10,%esp
c0105153:	8b 45 08             	mov    0x8(%ebp),%eax
c0105156:	89 45 fc             	mov    %eax,-0x4(%ebp)
c0105159:	eb 04                	jmp    c010515f <_strnlen_s+0x12>
c010515b:	83 45 fc 01          	addl   $0x1,-0x4(%ebp)
c010515f:	8b 45 fc             	mov    -0x4(%ebp),%eax
c0105162:	0f b6 00             	movzbl (%eax),%eax
c0105165:	84 c0                	test   %al,%al
c0105167:	74 0d                	je     c0105176 <_strnlen_s+0x29>
c0105169:	8b 45 0c             	mov    0xc(%ebp),%eax
c010516c:	8d 50 ff             	lea    -0x1(%eax),%edx
c010516f:	89 55 0c             	mov    %edx,0xc(%ebp)
c0105172:	85 c0                	test   %eax,%eax
c0105174:	75 e5                	jne    c010515b <_strnlen_s+0xe>
c0105176:	8b 45 fc             	mov    -0x4(%ebp),%eax
c0105179:	2b 45 08             	sub    0x8(%ebp),%eax
c010517c:	c9                   	leave
c010517d:	c3                   	ret

c010517e <_is_digit>:
c010517e:	55                   	push   %ebp
c010517f:	89 e5                	mov    %esp,%ebp
c0105181:	83 ec 04             	sub    $0x4,%esp
c0105184:	8b 45 08             	mov    0x8(%ebp),%eax
c0105187:	88 45 fc             	mov    %al,-0x4(%ebp)
c010518a:	80 7d fc 2f          	cmpb   $0x2f,-0x4(%ebp)
c010518e:	7e 0d                	jle    c010519d <_is_digit+0x1f>
c0105190:	80 7d fc 39          	cmpb   $0x39,-0x4(%ebp)
c0105194:	7f 07                	jg     c010519d <_is_digit+0x1f>
c0105196:	b8 01 00 00 00       	mov    $0x1,%eax
c010519b:	eb 05                	jmp    c01051a2 <_is_digit+0x24>
c010519d:	b8 00 00 00 00       	mov    $0x0,%eax
c01051a2:	83 e0 01             	and    $0x1,%eax
c01051a5:	c9                   	leave
c01051a6:	c3                   	ret

c01051a7 <_atoi>:
c01051a7:	55                   	push   %ebp
c01051a8:	89 e5                	mov    %esp,%ebp
c01051aa:	53                   	push   %ebx
c01051ab:	83 ec 10             	sub    $0x10,%esp
c01051ae:	c7 45 f8 00 00 00 00 	movl   $0x0,-0x8(%ebp)
c01051b5:	eb 29                	jmp    c01051e0 <_atoi+0x39>
c01051b7:	8b 55 f8             	mov    -0x8(%ebp),%edx
c01051ba:	89 d0                	mov    %edx,%eax
c01051bc:	c1 e0 02             	shl    $0x2,%eax
c01051bf:	01 d0                	add    %edx,%eax
c01051c1:	01 c0                	add    %eax,%eax
c01051c3:	89 c3                	mov    %eax,%ebx
c01051c5:	8b 45 08             	mov    0x8(%ebp),%eax
c01051c8:	8b 00                	mov    (%eax),%eax
c01051ca:	8d 48 01             	lea    0x1(%eax),%ecx
c01051cd:	8b 55 08             	mov    0x8(%ebp),%edx
c01051d0:	89 0a                	mov    %ecx,(%edx)
c01051d2:	0f b6 00             	movzbl (%eax),%eax
c01051d5:	0f be c0             	movsbl %al,%eax
c01051d8:	01 d8                	add    %ebx,%eax
c01051da:	83 e8 30             	sub    $0x30,%eax
c01051dd:	89 45 f8             	mov    %eax,-0x8(%ebp)
c01051e0:	8b 45 08             	mov    0x8(%ebp),%eax
c01051e3:	8b 00                	mov    (%eax),%eax
c01051e5:	0f b6 00             	movzbl (%eax),%eax
c01051e8:	0f be c0             	movsbl %al,%eax
c01051eb:	50                   	push   %eax
c01051ec:	e8 8d ff ff ff       	call   c010517e <_is_digit>
c01051f1:	83 c4 04             	add    $0x4,%esp
c01051f4:	84 c0                	test   %al,%al
c01051f6:	75 bf                	jne    c01051b7 <_atoi+0x10>
c01051f8:	8b 45 f8             	mov    -0x8(%ebp),%eax
c01051fb:	8b 5d fc             	mov    -0x4(%ebp),%ebx
c01051fe:	c9                   	leave
c01051ff:	c3                   	ret

c0105200 <_out_rev>:
c0105200:	55                   	push   %ebp
c0105201:	89 e5                	mov    %esp,%ebp
c0105203:	83 ec 18             	sub    $0x18,%esp
c0105206:	8b 45 10             	mov    0x10(%ebp),%eax
c0105209:	89 45 f0             	mov    %eax,-0x10(%ebp)
c010520c:	8b 45 24             	mov    0x24(%ebp),%eax
c010520f:	83 e0 02             	and    $0x2,%eax
c0105212:	85 c0                	test   %eax,%eax
c0105214:	75 65                	jne    c010527b <_out_rev+0x7b>
c0105216:	8b 45 24             	mov    0x24(%ebp),%eax
c0105219:	83 e0 01             	and    $0x1,%eax
c010521c:	85 c0                	test   %eax,%eax
c010521e:	75 5b                	jne    c010527b <_out_rev+0x7b>
c0105220:	8b 45 1c             	mov    0x1c(%ebp),%eax
c0105223:	89 45 f4             	mov    %eax,-0xc(%ebp)
c0105226:	eb 1e                	jmp    c0105246 <_out_rev+0x46>
c0105228:	8b 45 10             	mov    0x10(%ebp),%eax
c010522b:	8d 50 01             	lea    0x1(%eax),%edx
c010522e:	89 55 10             	mov    %edx,0x10(%ebp)
c0105231:	ff 75 14             	push   0x14(%ebp)
c0105234:	50                   	push   %eax
c0105235:	ff 75 0c             	push   0xc(%ebp)
c0105238:	6a 20                	push   $0x20
c010523a:	8b 45 08             	mov    0x8(%ebp),%eax
c010523d:	ff d0                	call   *%eax
c010523f:	83 c4 10             	add    $0x10,%esp
c0105242:	83 45 f4 01          	addl   $0x1,-0xc(%ebp)
c0105246:	8b 45 f4             	mov    -0xc(%ebp),%eax
c0105249:	3b 45 20             	cmp    0x20(%ebp),%eax
c010524c:	72 da                	jb     c0105228 <_out_rev+0x28>
c010524e:	eb 2b                	jmp    c010527b <_out_rev+0x7b>
c0105250:	8b 45 10             	mov    0x10(%ebp),%eax
c0105253:	8d 50 01             	lea    0x1(%eax),%edx
c0105256:	89 55 10             	mov    %edx,0x10(%ebp)
c0105259:	83 6d 1c 01          	subl   $0x1,0x1c(%ebp)
c010525d:	8b 4d 18             	mov    0x18(%ebp),%ecx
c0105260:	8b 55 1c             	mov    0x1c(%ebp),%edx
c0105263:	01 ca                	add    %ecx,%edx
c0105265:	0f b6 12             	movzbl (%edx),%edx
c0105268:	0f be d2             	movsbl %dl,%edx
c010526b:	ff 75 14             	push   0x14(%ebp)
c010526e:	50                   	push   %eax
c010526f:	ff 75 0c             	push   0xc(%ebp)
c0105272:	52                   	push   %edx
c0105273:	8b 45 08             	mov    0x8(%ebp),%eax
c0105276:	ff d0                	call   *%eax
c0105278:	83 c4 10             	add    $0x10,%esp
c010527b:	83 7d 1c 00          	cmpl   $0x0,0x1c(%ebp)
c010527f:	75 cf                	jne    c0105250 <_out_rev+0x50>
c0105281:	8b 45 24             	mov    0x24(%ebp),%eax
c0105284:	83 e0 02             	and    $0x2,%eax
c0105287:	85 c0                	test   %eax,%eax
c0105289:	74 27                	je     c01052b2 <_out_rev+0xb2>
c010528b:	eb 1a                	jmp    c01052a7 <_out_rev+0xa7>
c010528d:	8b 45 10             	mov    0x10(%ebp),%eax
c0105290:	8d 50 01             	lea    0x1(%eax),%edx
c0105293:	89 55 10             	mov    %edx,0x10(%ebp)
c0105296:	ff 75 14             	push   0x14(%ebp)
c0105299:	50                   	push   %eax
c010529a:	ff 75 0c             	push   0xc(%ebp)
c010529d:	6a 20                	push   $0x20
c010529f:	8b 45 08             	mov    0x8(%ebp),%eax
c01052a2:	ff d0                	call   *%eax
c01052a4:	83 c4 10             	add    $0x10,%esp
c01052a7:	8b 45 10             	mov    0x10(%ebp),%eax
c01052aa:	2b 45 f0             	sub    -0x10(%ebp),%eax
c01052ad:	3b 45 20             	cmp    0x20(%ebp),%eax
c01052b0:	72 db                	jb     c010528d <_out_rev+0x8d>
c01052b2:	8b 45 10             	mov    0x10(%ebp),%eax
c01052b5:	c9                   	leave
c01052b6:	c3                   	ret

c01052b7 <_ntoa_format>:
c01052b7:	55                   	push   %ebp
c01052b8:	89 e5                	mov    %esp,%ebp
c01052ba:	83 ec 18             	sub    $0x18,%esp
c01052bd:	8b 45 20             	mov    0x20(%ebp),%eax
c01052c0:	88 45 f4             	mov    %al,-0xc(%ebp)
c01052c3:	8b 45 30             	mov    0x30(%ebp),%eax
c01052c6:	83 e0 02             	and    $0x2,%eax
c01052c9:	85 c0                	test   %eax,%eax
c01052cb:	75 70                	jne    c010533d <_ntoa_format+0x86>
c01052cd:	83 7d 2c 00          	cmpl   $0x0,0x2c(%ebp)
c01052d1:	74 31                	je     c0105304 <_ntoa_format+0x4d>
c01052d3:	8b 45 30             	mov    0x30(%ebp),%eax
c01052d6:	83 e0 01             	and    $0x1,%eax
c01052d9:	85 c0                	test   %eax,%eax
c01052db:	74 27                	je     c0105304 <_ntoa_format+0x4d>
c01052dd:	80 7d f4 00          	cmpb   $0x0,-0xc(%ebp)
c01052e1:	75 0a                	jne    c01052ed <_ntoa_format+0x36>
c01052e3:	8b 45 30             	mov    0x30(%ebp),%eax
c01052e6:	83 e0 0c             	and    $0xc,%eax
c01052e9:	85 c0                	test   %eax,%eax
c01052eb:	74 17                	je     c0105304 <_ntoa_format+0x4d>
c01052ed:	83 6d 2c 01          	subl   $0x1,0x2c(%ebp)
c01052f1:	eb 11                	jmp    c0105304 <_ntoa_format+0x4d>
c01052f3:	8b 45 1c             	mov    0x1c(%ebp),%eax
c01052f6:	8d 50 01             	lea    0x1(%eax),%edx
c01052f9:	89 55 1c             	mov    %edx,0x1c(%ebp)
c01052fc:	8b 55 18             	mov    0x18(%ebp),%edx
c01052ff:	01 d0                	add    %edx,%eax
c0105301:	c6 00 30             	movb   $0x30,(%eax)
c0105304:	8b 45 1c             	mov    0x1c(%ebp),%eax
c0105307:	3b 45 28             	cmp    0x28(%ebp),%eax
c010530a:	73 19                	jae    c0105325 <_ntoa_format+0x6e>
c010530c:	83 7d 1c 1f          	cmpl   $0x1f,0x1c(%ebp)
c0105310:	76 e1                	jbe    c01052f3 <_ntoa_format+0x3c>
c0105312:	eb 11                	jmp    c0105325 <_ntoa_format+0x6e>
c0105314:	8b 45 1c             	mov    0x1c(%ebp),%eax
c0105317:	8d 50 01             	lea    0x1(%eax),%edx
c010531a:	89 55 1c             	mov    %edx,0x1c(%ebp)
c010531d:	8b 55 18             	mov    0x18(%ebp),%edx
c0105320:	01 d0                	add    %edx,%eax
c0105322:	c6 00 30             	movb   $0x30,(%eax)
c0105325:	8b 45 30             	mov    0x30(%ebp),%eax
c0105328:	83 e0 01             	and    $0x1,%eax
c010532b:	85 c0                	test   %eax,%eax
c010532d:	74 0e                	je     c010533d <_ntoa_format+0x86>
c010532f:	8b 45 1c             	mov    0x1c(%ebp),%eax
c0105332:	3b 45 2c             	cmp    0x2c(%ebp),%eax
c0105335:	73 06                	jae    c010533d <_ntoa_format+0x86>
c0105337:	83 7d 1c 1f          	cmpl   $0x1f,0x1c(%ebp)
c010533b:	76 d7                	jbe    c0105314 <_ntoa_format+0x5d>
c010533d:	8b 45 30             	mov    0x30(%ebp),%eax
c0105340:	83 e0 10             	and    $0x10,%eax
c0105343:	85 c0                	test   %eax,%eax
c0105345:	0f 84 bc 00 00 00    	je     c0105407 <_ntoa_format+0x150>
c010534b:	8b 45 30             	mov    0x30(%ebp),%eax
c010534e:	25 00 04 00 00       	and    $0x400,%eax
c0105353:	85 c0                	test   %eax,%eax
c0105355:	75 2a                	jne    c0105381 <_ntoa_format+0xca>
c0105357:	83 7d 1c 00          	cmpl   $0x0,0x1c(%ebp)
c010535b:	74 24                	je     c0105381 <_ntoa_format+0xca>
c010535d:	8b 45 1c             	mov    0x1c(%ebp),%eax
c0105360:	3b 45 28             	cmp    0x28(%ebp),%eax
c0105363:	74 08                	je     c010536d <_ntoa_format+0xb6>
c0105365:	8b 45 1c             	mov    0x1c(%ebp),%eax
c0105368:	3b 45 2c             	cmp    0x2c(%ebp),%eax
c010536b:	75 14                	jne    c0105381 <_ntoa_format+0xca>
c010536d:	83 6d 1c 01          	subl   $0x1,0x1c(%ebp)
c0105371:	83 7d 1c 00          	cmpl   $0x0,0x1c(%ebp)
c0105375:	74 0a                	je     c0105381 <_ntoa_format+0xca>
c0105377:	83 7d 24 10          	cmpl   $0x10,0x24(%ebp)
c010537b:	75 04                	jne    c0105381 <_ntoa_format+0xca>
c010537d:	83 6d 1c 01          	subl   $0x1,0x1c(%ebp)
c0105381:	83 7d 24 10          	cmpl   $0x10,0x24(%ebp)
c0105385:	75 23                	jne    c01053aa <_ntoa_format+0xf3>
c0105387:	8b 45 30             	mov    0x30(%ebp),%eax
c010538a:	83 e0 20             	and    $0x20,%eax
c010538d:	85 c0                	test   %eax,%eax
c010538f:	75 19                	jne    c01053aa <_ntoa_format+0xf3>
c0105391:	83 7d 1c 1f          	cmpl   $0x1f,0x1c(%ebp)
c0105395:	77 13                	ja     c01053aa <_ntoa_format+0xf3>
c0105397:	8b 45 1c             	mov    0x1c(%ebp),%eax
c010539a:	8d 50 01             	lea    0x1(%eax),%edx
c010539d:	89 55 1c             	mov    %edx,0x1c(%ebp)
c01053a0:	8b 55 18             	mov    0x18(%ebp),%edx
c01053a3:	01 d0                	add    %edx,%eax
c01053a5:	c6 00 78             	movb   $0x78,(%eax)
c01053a8:	eb 46                	jmp    c01053f0 <_ntoa_format+0x139>
c01053aa:	83 7d 24 10          	cmpl   $0x10,0x24(%ebp)
c01053ae:	75 23                	jne    c01053d3 <_ntoa_format+0x11c>
c01053b0:	8b 45 30             	mov    0x30(%ebp),%eax
c01053b3:	83 e0 20             	and    $0x20,%eax
c01053b6:	85 c0                	test   %eax,%eax
c01053b8:	74 19                	je     c01053d3 <_ntoa_format+0x11c>
c01053ba:	83 7d 1c 1f          	cmpl   $0x1f,0x1c(%ebp)
c01053be:	77 13                	ja     c01053d3 <_ntoa_format+0x11c>
c01053c0:	8b 45 1c             	mov    0x1c(%ebp),%eax
c01053c3:	8d 50 01             	lea    0x1(%eax),%edx
c01053c6:	89 55 1c             	mov    %edx,0x1c(%ebp)
c01053c9:	8b 55 18             	mov    0x18(%ebp),%edx
c01053cc:	01 d0                	add    %edx,%eax
c01053ce:	c6 00 58             	movb   $0x58,(%eax)
c01053d1:	eb 1d                	jmp    c01053f0 <_ntoa_format+0x139>
c01053d3:	83 7d 24 02          	cmpl   $0x2,0x24(%ebp)
c01053d7:	75 17                	jne    c01053f0 <_ntoa_format+0x139>
c01053d9:	83 7d 1c 1f          	cmpl   $0x1f,0x1c(%ebp)
c01053dd:	77 11                	ja     c01053f0 <_ntoa_format+0x139>
c01053df:	8b 45 1c             	mov    0x1c(%ebp),%eax
c01053e2:	8d 50 01             	lea    0x1(%eax),%edx
c01053e5:	89 55 1c             	mov    %edx,0x1c(%ebp)
c01053e8:	8b 55 18             	mov    0x18(%ebp),%edx
c01053eb:	01 d0                	add    %edx,%eax
c01053ed:	c6 00 62             	movb   $0x62,(%eax)
c01053f0:	83 7d 1c 1f          	cmpl   $0x1f,0x1c(%ebp)
c01053f4:	77 11                	ja     c0105407 <_ntoa_format+0x150>
c01053f6:	8b 45 1c             	mov    0x1c(%ebp),%eax
c01053f9:	8d 50 01             	lea    0x1(%eax),%edx
c01053fc:	89 55 1c             	mov    %edx,0x1c(%ebp)
c01053ff:	8b 55 18             	mov    0x18(%ebp),%edx
c0105402:	01 d0                	add    %edx,%eax
c0105404:	c6 00 30             	movb   $0x30,(%eax)
c0105407:	83 7d 1c 1f          	cmpl   $0x1f,0x1c(%ebp)
c010540b:	77 51                	ja     c010545e <_ntoa_format+0x1a7>
c010540d:	80 7d f4 00          	cmpb   $0x0,-0xc(%ebp)
c0105411:	74 13                	je     c0105426 <_ntoa_format+0x16f>
c0105413:	8b 45 1c             	mov    0x1c(%ebp),%eax
c0105416:	8d 50 01             	lea    0x1(%eax),%edx
c0105419:	89 55 1c             	mov    %edx,0x1c(%ebp)
c010541c:	8b 55 18             	mov    0x18(%ebp),%edx
c010541f:	01 d0                	add    %edx,%eax
c0105421:	c6 00 2d             	movb   $0x2d,(%eax)
c0105424:	eb 38                	jmp    c010545e <_ntoa_format+0x1a7>
c0105426:	8b 45 30             	mov    0x30(%ebp),%eax
c0105429:	83 e0 04             	and    $0x4,%eax
c010542c:	85 c0                	test   %eax,%eax
c010542e:	74 13                	je     c0105443 <_ntoa_format+0x18c>
c0105430:	8b 45 1c             	mov    0x1c(%ebp),%eax
c0105433:	8d 50 01             	lea    0x1(%eax),%edx
c0105436:	89 55 1c             	mov    %edx,0x1c(%ebp)
c0105439:	8b 55 18             	mov    0x18(%ebp),%edx
c010543c:	01 d0                	add    %edx,%eax
c010543e:	c6 00 2b             	movb   $0x2b,(%eax)
c0105441:	eb 1b                	jmp    c010545e <_ntoa_format+0x1a7>
c0105443:	8b 45 30             	mov    0x30(%ebp),%eax
c0105446:	83 e0 08             	and    $0x8,%eax
c0105449:	85 c0                	test   %eax,%eax
c010544b:	74 11                	je     c010545e <_ntoa_format+0x1a7>
c010544d:	8b 45 1c             	mov    0x1c(%ebp),%eax
c0105450:	8d 50 01             	lea    0x1(%eax),%edx
c0105453:	89 55 1c             	mov    %edx,0x1c(%ebp)
c0105456:	8b 55 18             	mov    0x18(%ebp),%edx
c0105459:	01 d0                	add    %edx,%eax
c010545b:	c6 00 20             	movb   $0x20,(%eax)
c010545e:	ff 75 30             	push   0x30(%ebp)
c0105461:	ff 75 2c             	push   0x2c(%ebp)
c0105464:	ff 75 1c             	push   0x1c(%ebp)
c0105467:	ff 75 18             	push   0x18(%ebp)
c010546a:	ff 75 14             	push   0x14(%ebp)
c010546d:	ff 75 10             	push   0x10(%ebp)
c0105470:	ff 75 0c             	push   0xc(%ebp)
c0105473:	ff 75 08             	push   0x8(%ebp)
c0105476:	e8 85 fd ff ff       	call   c0105200 <_out_rev>
c010547b:	83 c4 20             	add    $0x20,%esp
c010547e:	c9                   	leave
c010547f:	c3                   	ret

c0105480 <_ntoa_long>:
c0105480:	55                   	push   %ebp
c0105481:	89 e5                	mov    %esp,%ebp
c0105483:	83 ec 48             	sub    $0x48,%esp
c0105486:	8b 45 1c             	mov    0x1c(%ebp),%eax
c0105489:	88 45 c4             	mov    %al,-0x3c(%ebp)
c010548c:	c7 45 f4 00 00 00 00 	movl   $0x0,-0xc(%ebp)
c0105493:	83 7d 18 00          	cmpl   $0x0,0x18(%ebp)
c0105497:	75 04                	jne    c010549d <_ntoa_long+0x1d>
c0105499:	83 65 2c ef          	andl   $0xffffffef,0x2c(%ebp)
c010549d:	8b 45 2c             	mov    0x2c(%ebp),%eax
c01054a0:	25 00 04 00 00       	and    $0x400,%eax
c01054a5:	85 c0                	test   %eax,%eax
c01054a7:	74 06                	je     c01054af <_ntoa_long+0x2f>
c01054a9:	83 7d 18 00          	cmpl   $0x0,0x18(%ebp)
c01054ad:	74 69                	je     c0105518 <_ntoa_long+0x98>
c01054af:	8b 45 18             	mov    0x18(%ebp),%eax
c01054b2:	ba 00 00 00 00       	mov    $0x0,%edx
c01054b7:	f7 75 20             	divl   0x20(%ebp)
c01054ba:	89 d0                	mov    %edx,%eax
c01054bc:	88 45 f3             	mov    %al,-0xd(%ebp)
c01054bf:	80 7d f3 09          	cmpb   $0x9,-0xd(%ebp)
c01054c3:	7f 0b                	jg     c01054d0 <_ntoa_long+0x50>
c01054c5:	0f b6 45 f3          	movzbl -0xd(%ebp),%eax
c01054c9:	83 c0 30             	add    $0x30,%eax
c01054cc:	89 c1                	mov    %eax,%ecx
c01054ce:	eb 21                	jmp    c01054f1 <_ntoa_long+0x71>
c01054d0:	8b 45 2c             	mov    0x2c(%ebp),%eax
c01054d3:	83 e0 20             	and    $0x20,%eax
c01054d6:	85 c0                	test   %eax,%eax
c01054d8:	74 07                	je     c01054e1 <_ntoa_long+0x61>
c01054da:	ba 41 00 00 00       	mov    $0x41,%edx
c01054df:	eb 05                	jmp    c01054e6 <_ntoa_long+0x66>
c01054e1:	ba 61 00 00 00       	mov    $0x61,%edx
c01054e6:	0f b6 45 f3          	movzbl -0xd(%ebp),%eax
c01054ea:	01 d0                	add    %edx,%eax
c01054ec:	83 e8 0a             	sub    $0xa,%eax
c01054ef:	89 c1                	mov    %eax,%ecx
c01054f1:	8b 45 f4             	mov    -0xc(%ebp),%eax
c01054f4:	8d 50 01             	lea    0x1(%eax),%edx
c01054f7:	89 55 f4             	mov    %edx,-0xc(%ebp)
c01054fa:	88 4c 05 d3          	mov    %cl,-0x2d(%ebp,%eax,1)
c01054fe:	8b 45 18             	mov    0x18(%ebp),%eax
c0105501:	ba 00 00 00 00       	mov    $0x0,%edx
c0105506:	f7 75 20             	divl   0x20(%ebp)
c0105509:	89 45 18             	mov    %eax,0x18(%ebp)
c010550c:	83 7d 18 00          	cmpl   $0x0,0x18(%ebp)
c0105510:	74 06                	je     c0105518 <_ntoa_long+0x98>
c0105512:	83 7d f4 1f          	cmpl   $0x1f,-0xc(%ebp)
c0105516:	76 97                	jbe    c01054af <_ntoa_long+0x2f>
c0105518:	0f b6 45 c4          	movzbl -0x3c(%ebp),%eax
c010551c:	83 ec 04             	sub    $0x4,%esp
c010551f:	ff 75 2c             	push   0x2c(%ebp)
c0105522:	ff 75 28             	push   0x28(%ebp)
c0105525:	ff 75 24             	push   0x24(%ebp)
c0105528:	ff 75 20             	push   0x20(%ebp)
c010552b:	50                   	push   %eax
c010552c:	ff 75 f4             	push   -0xc(%ebp)
c010552f:	8d 45 d3             	lea    -0x2d(%ebp),%eax
c0105532:	50                   	push   %eax
c0105533:	ff 75 14             	push   0x14(%ebp)
c0105536:	ff 75 10             	push   0x10(%ebp)
c0105539:	ff 75 0c             	push   0xc(%ebp)
c010553c:	ff 75 08             	push   0x8(%ebp)
c010553f:	e8 73 fd ff ff       	call   c01052b7 <_ntoa_format>
c0105544:	83 c4 30             	add    $0x30,%esp
c0105547:	c9                   	leave
c0105548:	c3                   	ret

c0105549 <_ntoa_long_long>:
c0105549:	55                   	push   %ebp
c010554a:	89 e5                	mov    %esp,%ebp
c010554c:	83 ec 58             	sub    $0x58,%esp
c010554f:	8b 55 20             	mov    0x20(%ebp),%edx
c0105552:	8b 45 18             	mov    0x18(%ebp),%eax
c0105555:	89 45 c0             	mov    %eax,-0x40(%ebp)
c0105558:	8b 45 1c             	mov    0x1c(%ebp),%eax
c010555b:	89 45 c4             	mov    %eax,-0x3c(%ebp)
c010555e:	89 d0                	mov    %edx,%eax
c0105560:	88 45 bc             	mov    %al,-0x44(%ebp)
c0105563:	8b 45 24             	mov    0x24(%ebp),%eax
c0105566:	89 45 b0             	mov    %eax,-0x50(%ebp)
c0105569:	8b 45 28             	mov    0x28(%ebp),%eax
c010556c:	89 45 b4             	mov    %eax,-0x4c(%ebp)
c010556f:	c7 45 f4 00 00 00 00 	movl   $0x0,-0xc(%ebp)
c0105576:	8b 45 c0             	mov    -0x40(%ebp),%eax
c0105579:	8b 55 c4             	mov    -0x3c(%ebp),%edx
c010557c:	09 d0                	or     %edx,%eax
c010557e:	85 c0                	test   %eax,%eax
c0105580:	75 04                	jne    c0105586 <_ntoa_long_long+0x3d>
c0105582:	83 65 34 ef          	andl   $0xffffffef,0x34(%ebp)
c0105586:	8b 45 34             	mov    0x34(%ebp),%eax
c0105589:	25 00 04 00 00       	and    $0x400,%eax
c010558e:	85 c0                	test   %eax,%eax
c0105590:	74 10                	je     c01055a2 <_ntoa_long_long+0x59>
c0105592:	8b 45 c0             	mov    -0x40(%ebp),%eax
c0105595:	8b 55 c4             	mov    -0x3c(%ebp),%edx
c0105598:	09 d0                	or     %edx,%eax
c010559a:	85 c0                	test   %eax,%eax
c010559c:	0f 84 88 00 00 00    	je     c010562a <_ntoa_long_long+0xe1>
c01055a2:	8b 45 c0             	mov    -0x40(%ebp),%eax
c01055a5:	8b 55 c4             	mov    -0x3c(%ebp),%edx
c01055a8:	ff 75 b4             	push   -0x4c(%ebp)
c01055ab:	ff 75 b0             	push   -0x50(%ebp)
c01055ae:	52                   	push   %edx
c01055af:	50                   	push   %eax
c01055b0:	e8 2a 18 00 00       	call   c0106ddf <__umoddi3>
c01055b5:	83 c4 10             	add    $0x10,%esp
c01055b8:	88 45 f3             	mov    %al,-0xd(%ebp)
c01055bb:	80 7d f3 09          	cmpb   $0x9,-0xd(%ebp)
c01055bf:	7f 0b                	jg     c01055cc <_ntoa_long_long+0x83>
c01055c1:	0f b6 45 f3          	movzbl -0xd(%ebp),%eax
c01055c5:	83 c0 30             	add    $0x30,%eax
c01055c8:	89 c1                	mov    %eax,%ecx
c01055ca:	eb 21                	jmp    c01055ed <_ntoa_long_long+0xa4>
c01055cc:	8b 45 34             	mov    0x34(%ebp),%eax
c01055cf:	83 e0 20             	and    $0x20,%eax
c01055d2:	85 c0                	test   %eax,%eax
c01055d4:	74 07                	je     c01055dd <_ntoa_long_long+0x94>
c01055d6:	ba 41 00 00 00       	mov    $0x41,%edx
c01055db:	eb 05                	jmp    c01055e2 <_ntoa_long_long+0x99>
c01055dd:	ba 61 00 00 00       	mov    $0x61,%edx
c01055e2:	0f b6 45 f3          	movzbl -0xd(%ebp),%eax
c01055e6:	01 d0                	add    %edx,%eax
c01055e8:	83 e8 0a             	sub    $0xa,%eax
c01055eb:	89 c1                	mov    %eax,%ecx
c01055ed:	8b 45 f4             	mov    -0xc(%ebp),%eax
c01055f0:	8d 50 01             	lea    0x1(%eax),%edx
c01055f3:	89 55 f4             	mov    %edx,-0xc(%ebp)
c01055f6:	88 4c 05 d3          	mov    %cl,-0x2d(%ebp,%eax,1)
c01055fa:	ff 75 b4             	push   -0x4c(%ebp)
c01055fd:	ff 75 b0             	push   -0x50(%ebp)
c0105600:	ff 75 c4             	push   -0x3c(%ebp)
c0105603:	ff 75 c0             	push   -0x40(%ebp)
c0105606:	e8 9b 17 00 00       	call   c0106da6 <__udivdi3>
c010560b:	83 c4 10             	add    $0x10,%esp
c010560e:	89 45 c0             	mov    %eax,-0x40(%ebp)
c0105611:	89 55 c4             	mov    %edx,-0x3c(%ebp)
c0105614:	8b 45 c0             	mov    -0x40(%ebp),%eax
c0105617:	8b 55 c4             	mov    -0x3c(%ebp),%edx
c010561a:	09 d0                	or     %edx,%eax
c010561c:	85 c0                	test   %eax,%eax
c010561e:	74 0a                	je     c010562a <_ntoa_long_long+0xe1>
c0105620:	83 7d f4 1f          	cmpl   $0x1f,-0xc(%ebp)
c0105624:	0f 86 78 ff ff ff    	jbe    c01055a2 <_ntoa_long_long+0x59>
c010562a:	8b 55 b0             	mov    -0x50(%ebp),%edx
c010562d:	0f b6 45 bc          	movzbl -0x44(%ebp),%eax
c0105631:	83 ec 04             	sub    $0x4,%esp
c0105634:	ff 75 34             	push   0x34(%ebp)
c0105637:	ff 75 30             	push   0x30(%ebp)
c010563a:	ff 75 2c             	push   0x2c(%ebp)
c010563d:	52                   	push   %edx
c010563e:	50                   	push   %eax
c010563f:	ff 75 f4             	push   -0xc(%ebp)
c0105642:	8d 45 d3             	lea    -0x2d(%ebp),%eax
c0105645:	50                   	push   %eax
c0105646:	ff 75 14             	push   0x14(%ebp)
c0105649:	ff 75 10             	push   0x10(%ebp)
c010564c:	ff 75 0c             	push   0xc(%ebp)
c010564f:	ff 75 08             	push   0x8(%ebp)
c0105652:	e8 60 fc ff ff       	call   c01052b7 <_ntoa_format>
c0105657:	83 c4 30             	add    $0x30,%esp
c010565a:	c9                   	leave
c010565b:	c3                   	ret

c010565c <_ftoa>:
c010565c:	55                   	push   %ebp
c010565d:	89 e5                	mov    %esp,%ebp
c010565f:	83 ec 78             	sub    $0x78,%esp
c0105662:	8b 45 18             	mov    0x18(%ebp),%eax
c0105665:	89 45 a0             	mov    %eax,-0x60(%ebp)
c0105668:	8b 45 1c             	mov    0x1c(%ebp),%eax
c010566b:	89 45 a4             	mov    %eax,-0x5c(%ebp)
c010566e:	c7 45 f4 00 00 00 00 	movl   $0x0,-0xc(%ebp)
c0105675:	d9 ee                	fldz
c0105677:	dd 5d d8             	fstpl  -0x28(%ebp)
c010567a:	dd 45 a0             	fldl   -0x60(%ebp)
c010567d:	dd 45 a0             	fldl   -0x60(%ebp)
c0105680:	df e9                	fucomip %st(1),%st
c0105682:	dd d8                	fstp   %st(0)
c0105684:	7b 26                	jnp    c01056ac <_ftoa+0x50>
c0105686:	ff 75 28             	push   0x28(%ebp)
c0105689:	ff 75 24             	push   0x24(%ebp)
c010568c:	6a 03                	push   $0x3
c010568e:	68 00 76 10 c0       	push   $0xc0107600
c0105693:	ff 75 14             	push   0x14(%ebp)
c0105696:	ff 75 10             	push   0x10(%ebp)
c0105699:	ff 75 0c             	push   0xc(%ebp)
c010569c:	ff 75 08             	push   0x8(%ebp)
c010569f:	e8 5c fb ff ff       	call   c0105200 <_out_rev>
c01056a4:	83 c4 20             	add    $0x20,%esp
c01056a7:	e9 ee 03 00 00       	jmp    c0105a9a <_ftoa+0x43e>
c01056ac:	dd 45 a0             	fldl   -0x60(%ebp)
c01056af:	dd 05 d0 77 10 c0    	fldl   0xc01077d0
c01056b5:	df f1                	fcomip %st(1),%st
c01056b7:	dd d8                	fstp   %st(0)
c01056b9:	76 26                	jbe    c01056e1 <_ftoa+0x85>
c01056bb:	ff 75 28             	push   0x28(%ebp)
c01056be:	ff 75 24             	push   0x24(%ebp)
c01056c1:	6a 04                	push   $0x4
c01056c3:	68 04 76 10 c0       	push   $0xc0107604
c01056c8:	ff 75 14             	push   0x14(%ebp)
c01056cb:	ff 75 10             	push   0x10(%ebp)
c01056ce:	ff 75 0c             	push   0xc(%ebp)
c01056d1:	ff 75 08             	push   0x8(%ebp)
c01056d4:	e8 27 fb ff ff       	call   c0105200 <_out_rev>
c01056d9:	83 c4 20             	add    $0x20,%esp
c01056dc:	e9 b9 03 00 00       	jmp    c0105a9a <_ftoa+0x43e>
c01056e1:	dd 05 d8 77 10 c0    	fldl   0xc01077d8
c01056e7:	dd 45 a0             	fldl   -0x60(%ebp)
c01056ea:	df f1                	fcomip %st(1),%st
c01056ec:	dd d8                	fstp   %st(0)
c01056ee:	76 4d                	jbe    c010573d <_ftoa+0xe1>
c01056f0:	8b 45 28             	mov    0x28(%ebp),%eax
c01056f3:	83 e0 04             	and    $0x4,%eax
c01056f6:	85 c0                	test   %eax,%eax
c01056f8:	74 07                	je     c0105701 <_ftoa+0xa5>
c01056fa:	ba 04 00 00 00       	mov    $0x4,%edx
c01056ff:	eb 05                	jmp    c0105706 <_ftoa+0xaa>
c0105701:	ba 03 00 00 00       	mov    $0x3,%edx
c0105706:	8b 45 28             	mov    0x28(%ebp),%eax
c0105709:	83 e0 04             	and    $0x4,%eax
c010570c:	85 c0                	test   %eax,%eax
c010570e:	74 07                	je     c0105717 <_ftoa+0xbb>
c0105710:	b8 09 76 10 c0       	mov    $0xc0107609,%eax
c0105715:	eb 05                	jmp    c010571c <_ftoa+0xc0>
c0105717:	b8 0e 76 10 c0       	mov    $0xc010760e,%eax
c010571c:	ff 75 28             	push   0x28(%ebp)
c010571f:	ff 75 24             	push   0x24(%ebp)
c0105722:	52                   	push   %edx
c0105723:	50                   	push   %eax
c0105724:	ff 75 14             	push   0x14(%ebp)
c0105727:	ff 75 10             	push   0x10(%ebp)
c010572a:	ff 75 0c             	push   0xc(%ebp)
c010572d:	ff 75 08             	push   0x8(%ebp)
c0105730:	e8 cb fa ff ff       	call   c0105200 <_out_rev>
c0105735:	83 c4 20             	add    $0x20,%esp
c0105738:	e9 5d 03 00 00       	jmp    c0105a9a <_ftoa+0x43e>
c010573d:	dd 05 e0 77 10 c0    	fldl   0xc01077e0
c0105743:	dd 45 a0             	fldl   -0x60(%ebp)
c0105746:	df f1                	fcomip %st(1),%st
c0105748:	dd d8                	fstp   %st(0)
c010574a:	77 0f                	ja     c010575b <_ftoa+0xff>
c010574c:	dd 45 a0             	fldl   -0x60(%ebp)
c010574f:	dd 05 e8 77 10 c0    	fldl   0xc01077e8
c0105755:	df f1                	fcomip %st(1),%st
c0105757:	dd d8                	fstp   %st(0)
c0105759:	76 2b                	jbe    c0105786 <_ftoa+0x12a>
c010575b:	83 ec 0c             	sub    $0xc,%esp
c010575e:	ff 75 28             	push   0x28(%ebp)
c0105761:	ff 75 24             	push   0x24(%ebp)
c0105764:	ff 75 20             	push   0x20(%ebp)
c0105767:	ff 75 a4             	push   -0x5c(%ebp)
c010576a:	ff 75 a0             	push   -0x60(%ebp)
c010576d:	ff 75 14             	push   0x14(%ebp)
c0105770:	ff 75 10             	push   0x10(%ebp)
c0105773:	ff 75 0c             	push   0xc(%ebp)
c0105776:	ff 75 08             	push   0x8(%ebp)
c0105779:	e8 1e 03 00 00       	call   c0105a9c <_etoa>
c010577e:	83 c4 30             	add    $0x30,%esp
c0105781:	e9 14 03 00 00       	jmp    c0105a9a <_ftoa+0x43e>
c0105786:	c6 45 f3 00          	movb   $0x0,-0xd(%ebp)
c010578a:	dd 45 a0             	fldl   -0x60(%ebp)
c010578d:	d9 ee                	fldz
c010578f:	df f1                	fcomip %st(1),%st
c0105791:	dd d8                	fstp   %st(0)
c0105793:	76 0c                	jbe    c01057a1 <_ftoa+0x145>
c0105795:	c6 45 f3 01          	movb   $0x1,-0xd(%ebp)
c0105799:	d9 ee                	fldz
c010579b:	dc 65 a0             	fsubl  -0x60(%ebp)
c010579e:	dd 5d a0             	fstpl  -0x60(%ebp)
c01057a1:	8b 45 28             	mov    0x28(%ebp),%eax
c01057a4:	25 00 04 00 00       	and    $0x400,%eax
c01057a9:	85 c0                	test   %eax,%eax
c01057ab:	75 1b                	jne    c01057c8 <_ftoa+0x16c>
c01057ad:	c7 45 20 06 00 00 00 	movl   $0x6,0x20(%ebp)
c01057b4:	eb 12                	jmp    c01057c8 <_ftoa+0x16c>
c01057b6:	8b 45 f4             	mov    -0xc(%ebp),%eax
c01057b9:	8d 50 01             	lea    0x1(%eax),%edx
c01057bc:	89 55 f4             	mov    %edx,-0xc(%ebp)
c01057bf:	c6 44 05 b0 30       	movb   $0x30,-0x50(%ebp,%eax,1)
c01057c4:	83 6d 20 01          	subl   $0x1,0x20(%ebp)
c01057c8:	83 7d f4 1f          	cmpl   $0x1f,-0xc(%ebp)
c01057cc:	77 06                	ja     c01057d4 <_ftoa+0x178>
c01057ce:	83 7d 20 09          	cmpl   $0x9,0x20(%ebp)
c01057d2:	77 e2                	ja     c01057b6 <_ftoa+0x15a>
c01057d4:	dd 45 a0             	fldl   -0x60(%ebp)
c01057d7:	d9 7d 9e             	fnstcw -0x62(%ebp)
c01057da:	0f b7 45 9e          	movzwl -0x62(%ebp),%eax
c01057de:	80 cc 0c             	or     $0xc,%ah
c01057e1:	66 89 45 9c          	mov    %ax,-0x64(%ebp)
c01057e5:	d9 6d 9c             	fldcw  -0x64(%ebp)
c01057e8:	db 5d ec             	fistpl -0x14(%ebp)
c01057eb:	d9 6d 9e             	fldcw  -0x62(%ebp)
c01057ee:	db 45 ec             	fildl  -0x14(%ebp)
c01057f1:	dd 45 a0             	fldl   -0x60(%ebp)
c01057f4:	de e1                	fsubp  %st,%st(1)
c01057f6:	8b 45 20             	mov    0x20(%ebp),%eax
c01057f9:	dd 04 c5 80 77 10 c0 	fldl   -0x3fef8880(,%eax,8)
c0105800:	de c9                	fmulp  %st,%st(1)
c0105802:	dd 5d d0             	fstpl  -0x30(%ebp)
c0105805:	dd 45 d0             	fldl   -0x30(%ebp)
c0105808:	d9 6d 9c             	fldcw  -0x64(%ebp)
c010580b:	df 7d 90             	fistpll -0x70(%ebp)
c010580e:	d9 6d 9e             	fldcw  -0x62(%ebp)
c0105811:	8b 45 90             	mov    -0x70(%ebp),%eax
c0105814:	89 45 e8             	mov    %eax,-0x18(%ebp)
c0105817:	8b 45 e8             	mov    -0x18(%ebp),%eax
c010581a:	ba 00 00 00 00       	mov    $0x0,%edx
c010581f:	89 45 90             	mov    %eax,-0x70(%ebp)
c0105822:	89 55 94             	mov    %edx,-0x6c(%ebp)
c0105825:	df 6d 90             	fildll -0x70(%ebp)
c0105828:	dd 45 d0             	fldl   -0x30(%ebp)
c010582b:	de e1                	fsubp  %st,%st(1)
c010582d:	dd 5d d8             	fstpl  -0x28(%ebp)
c0105830:	dd 05 f0 77 10 c0    	fldl   0xc01077f0
c0105836:	dd 45 d8             	fldl   -0x28(%ebp)
c0105839:	df f1                	fcomip %st(1),%st
c010583b:	dd d8                	fstp   %st(0)
c010583d:	76 34                	jbe    c0105873 <_ftoa+0x217>
c010583f:	83 45 e8 01          	addl   $0x1,-0x18(%ebp)
c0105843:	8b 45 e8             	mov    -0x18(%ebp),%eax
c0105846:	ba 00 00 00 00       	mov    $0x0,%edx
c010584b:	89 45 90             	mov    %eax,-0x70(%ebp)
c010584e:	89 55 94             	mov    %edx,-0x6c(%ebp)
c0105851:	df 6d 90             	fildll -0x70(%ebp)
c0105854:	8b 45 20             	mov    0x20(%ebp),%eax
c0105857:	dd 04 c5 80 77 10 c0 	fldl   -0x3fef8880(,%eax,8)
c010585e:	d9 c9                	fxch   %st(1)
c0105860:	df f1                	fcomip %st(1),%st
c0105862:	dd d8                	fstp   %st(0)
c0105864:	72 30                	jb     c0105896 <_ftoa+0x23a>
c0105866:	c7 45 e8 00 00 00 00 	movl   $0x0,-0x18(%ebp)
c010586d:	83 45 ec 01          	addl   $0x1,-0x14(%ebp)
c0105871:	eb 23                	jmp    c0105896 <_ftoa+0x23a>
c0105873:	dd 45 d8             	fldl   -0x28(%ebp)
c0105876:	dd 05 f0 77 10 c0    	fldl   0xc01077f0
c010587c:	df f1                	fcomip %st(1),%st
c010587e:	dd d8                	fstp   %st(0)
c0105880:	77 14                	ja     c0105896 <_ftoa+0x23a>
c0105882:	83 7d e8 00          	cmpl   $0x0,-0x18(%ebp)
c0105886:	74 0a                	je     c0105892 <_ftoa+0x236>
c0105888:	8b 45 e8             	mov    -0x18(%ebp),%eax
c010588b:	83 e0 01             	and    $0x1,%eax
c010588e:	85 c0                	test   %eax,%eax
c0105890:	74 04                	je     c0105896 <_ftoa+0x23a>
c0105892:	83 45 e8 01          	addl   $0x1,-0x18(%ebp)
c0105896:	83 7d 20 00          	cmpl   $0x0,0x20(%ebp)
c010589a:	75 4c                	jne    c01058e8 <_ftoa+0x28c>
c010589c:	db 45 ec             	fildl  -0x14(%ebp)
c010589f:	dd 45 a0             	fldl   -0x60(%ebp)
c01058a2:	de e1                	fsubp  %st,%st(1)
c01058a4:	dd 5d d8             	fstpl  -0x28(%ebp)
c01058a7:	dd 45 d8             	fldl   -0x28(%ebp)
c01058aa:	dd 05 f0 77 10 c0    	fldl   0xc01077f0
c01058b0:	df f1                	fcomip %st(1),%st
c01058b2:	dd d8                	fstp   %st(0)
c01058b4:	0f 97 c0             	seta   %al
c01058b7:	83 f0 01             	xor    $0x1,%eax
c01058ba:	84 c0                	test   %al,%al
c01058bc:	75 13                	jne    c01058d1 <_ftoa+0x275>
c01058be:	dd 05 f0 77 10 c0    	fldl   0xc01077f0
c01058c4:	dd 45 d8             	fldl   -0x28(%ebp)
c01058c7:	df f1                	fcomip %st(1),%st
c01058c9:	dd d8                	fstp   %st(0)
c01058cb:	0f 86 ab 00 00 00    	jbe    c010597c <_ftoa+0x320>
c01058d1:	8b 45 ec             	mov    -0x14(%ebp),%eax
c01058d4:	83 e0 01             	and    $0x1,%eax
c01058d7:	85 c0                	test   %eax,%eax
c01058d9:	0f 84 f7 00 00 00    	je     c01059d6 <_ftoa+0x37a>
c01058df:	83 45 ec 01          	addl   $0x1,-0x14(%ebp)
c01058e3:	e9 ee 00 00 00       	jmp    c01059d6 <_ftoa+0x37a>
c01058e8:	8b 45 20             	mov    0x20(%ebp),%eax
c01058eb:	89 45 e4             	mov    %eax,-0x1c(%ebp)
c01058ee:	eb 4c                	jmp    c010593c <_ftoa+0x2e0>
c01058f0:	83 6d e4 01          	subl   $0x1,-0x1c(%ebp)
c01058f4:	8b 4d e8             	mov    -0x18(%ebp),%ecx
c01058f7:	ba cd cc cc cc       	mov    $0xcccccccd,%edx
c01058fc:	89 c8                	mov    %ecx,%eax
c01058fe:	f7 e2                	mul    %edx
c0105900:	c1 ea 03             	shr    $0x3,%edx
c0105903:	89 d0                	mov    %edx,%eax
c0105905:	c1 e0 02             	shl    $0x2,%eax
c0105908:	01 d0                	add    %edx,%eax
c010590a:	01 c0                	add    %eax,%eax
c010590c:	29 c1                	sub    %eax,%ecx
c010590e:	89 ca                	mov    %ecx,%edx
c0105910:	89 d0                	mov    %edx,%eax
c0105912:	8d 48 30             	lea    0x30(%eax),%ecx
c0105915:	8b 45 f4             	mov    -0xc(%ebp),%eax
c0105918:	8d 50 01             	lea    0x1(%eax),%edx
c010591b:	89 55 f4             	mov    %edx,-0xc(%ebp)
c010591e:	89 ca                	mov    %ecx,%edx
c0105920:	88 54 05 b0          	mov    %dl,-0x50(%ebp,%eax,1)
c0105924:	8b 45 e8             	mov    -0x18(%ebp),%eax
c0105927:	ba cd cc cc cc       	mov    $0xcccccccd,%edx
c010592c:	f7 e2                	mul    %edx
c010592e:	89 d0                	mov    %edx,%eax
c0105930:	c1 e8 03             	shr    $0x3,%eax
c0105933:	89 45 e8             	mov    %eax,-0x18(%ebp)
c0105936:	83 7d e8 00          	cmpl   $0x0,-0x18(%ebp)
c010593a:	74 08                	je     c0105944 <_ftoa+0x2e8>
c010593c:	83 7d f4 1f          	cmpl   $0x1f,-0xc(%ebp)
c0105940:	76 ae                	jbe    c01058f0 <_ftoa+0x294>
c0105942:	eb 11                	jmp    c0105955 <_ftoa+0x2f9>
c0105944:	90                   	nop
c0105945:	eb 0e                	jmp    c0105955 <_ftoa+0x2f9>
c0105947:	8b 45 f4             	mov    -0xc(%ebp),%eax
c010594a:	8d 50 01             	lea    0x1(%eax),%edx
c010594d:	89 55 f4             	mov    %edx,-0xc(%ebp)
c0105950:	c6 44 05 b0 30       	movb   $0x30,-0x50(%ebp,%eax,1)
c0105955:	83 7d f4 1f          	cmpl   $0x1f,-0xc(%ebp)
c0105959:	77 0d                	ja     c0105968 <_ftoa+0x30c>
c010595b:	8b 45 e4             	mov    -0x1c(%ebp),%eax
c010595e:	8d 50 ff             	lea    -0x1(%eax),%edx
c0105961:	89 55 e4             	mov    %edx,-0x1c(%ebp)
c0105964:	85 c0                	test   %eax,%eax
c0105966:	75 df                	jne    c0105947 <_ftoa+0x2eb>
c0105968:	83 7d f4 1f          	cmpl   $0x1f,-0xc(%ebp)
c010596c:	77 68                	ja     c01059d6 <_ftoa+0x37a>
c010596e:	8b 45 f4             	mov    -0xc(%ebp),%eax
c0105971:	8d 50 01             	lea    0x1(%eax),%edx
c0105974:	89 55 f4             	mov    %edx,-0xc(%ebp)
c0105977:	c6 44 05 b0 2e       	movb   $0x2e,-0x50(%ebp,%eax,1)
c010597c:	eb 58                	jmp    c01059d6 <_ftoa+0x37a>
c010597e:	8b 4d ec             	mov    -0x14(%ebp),%ecx
c0105981:	ba 67 66 66 66       	mov    $0x66666667,%edx
c0105986:	89 c8                	mov    %ecx,%eax
c0105988:	f7 ea                	imul   %edx
c010598a:	c1 fa 02             	sar    $0x2,%edx
c010598d:	89 c8                	mov    %ecx,%eax
c010598f:	c1 f8 1f             	sar    $0x1f,%eax
c0105992:	29 c2                	sub    %eax,%edx
c0105994:	89 d0                	mov    %edx,%eax
c0105996:	c1 e0 02             	shl    $0x2,%eax
c0105999:	01 d0                	add    %edx,%eax
c010599b:	01 c0                	add    %eax,%eax
c010599d:	29 c1                	sub    %eax,%ecx
c010599f:	89 ca                	mov    %ecx,%edx
c01059a1:	89 d0                	mov    %edx,%eax
c01059a3:	8d 48 30             	lea    0x30(%eax),%ecx
c01059a6:	8b 45 f4             	mov    -0xc(%ebp),%eax
c01059a9:	8d 50 01             	lea    0x1(%eax),%edx
c01059ac:	89 55 f4             	mov    %edx,-0xc(%ebp)
c01059af:	89 ca                	mov    %ecx,%edx
c01059b1:	88 54 05 b0          	mov    %dl,-0x50(%ebp,%eax,1)
c01059b5:	8b 4d ec             	mov    -0x14(%ebp),%ecx
c01059b8:	ba 67 66 66 66       	mov    $0x66666667,%edx
c01059bd:	89 c8                	mov    %ecx,%eax
c01059bf:	f7 ea                	imul   %edx
c01059c1:	89 d0                	mov    %edx,%eax
c01059c3:	c1 f8 02             	sar    $0x2,%eax
c01059c6:	c1 f9 1f             	sar    $0x1f,%ecx
c01059c9:	89 ca                	mov    %ecx,%edx
c01059cb:	29 d0                	sub    %edx,%eax
c01059cd:	89 45 ec             	mov    %eax,-0x14(%ebp)
c01059d0:	83 7d ec 00          	cmpl   $0x0,-0x14(%ebp)
c01059d4:	74 08                	je     c01059de <_ftoa+0x382>
c01059d6:	83 7d f4 1f          	cmpl   $0x1f,-0xc(%ebp)
c01059da:	76 a2                	jbe    c010597e <_ftoa+0x322>
c01059dc:	eb 01                	jmp    c01059df <_ftoa+0x383>
c01059de:	90                   	nop
c01059df:	8b 45 28             	mov    0x28(%ebp),%eax
c01059e2:	83 e0 02             	and    $0x2,%eax
c01059e5:	85 c0                	test   %eax,%eax
c01059e7:	75 42                	jne    c0105a2b <_ftoa+0x3cf>
c01059e9:	8b 45 28             	mov    0x28(%ebp),%eax
c01059ec:	83 e0 01             	and    $0x1,%eax
c01059ef:	85 c0                	test   %eax,%eax
c01059f1:	74 38                	je     c0105a2b <_ftoa+0x3cf>
c01059f3:	83 7d 24 00          	cmpl   $0x0,0x24(%ebp)
c01059f7:	74 24                	je     c0105a1d <_ftoa+0x3c1>
c01059f9:	80 7d f3 00          	cmpb   $0x0,-0xd(%ebp)
c01059fd:	75 0a                	jne    c0105a09 <_ftoa+0x3ad>
c01059ff:	8b 45 28             	mov    0x28(%ebp),%eax
c0105a02:	83 e0 0c             	and    $0xc,%eax
c0105a05:	85 c0                	test   %eax,%eax
c0105a07:	74 14                	je     c0105a1d <_ftoa+0x3c1>
c0105a09:	83 6d 24 01          	subl   $0x1,0x24(%ebp)
c0105a0d:	eb 0e                	jmp    c0105a1d <_ftoa+0x3c1>
c0105a0f:	8b 45 f4             	mov    -0xc(%ebp),%eax
c0105a12:	8d 50 01             	lea    0x1(%eax),%edx
c0105a15:	89 55 f4             	mov    %edx,-0xc(%ebp)
c0105a18:	c6 44 05 b0 30       	movb   $0x30,-0x50(%ebp,%eax,1)
c0105a1d:	8b 45 f4             	mov    -0xc(%ebp),%eax
c0105a20:	3b 45 24             	cmp    0x24(%ebp),%eax
c0105a23:	73 06                	jae    c0105a2b <_ftoa+0x3cf>
c0105a25:	83 7d f4 1f          	cmpl   $0x1f,-0xc(%ebp)
c0105a29:	76 e4                	jbe    c0105a0f <_ftoa+0x3b3>
c0105a2b:	83 7d f4 1f          	cmpl   $0x1f,-0xc(%ebp)
c0105a2f:	77 48                	ja     c0105a79 <_ftoa+0x41d>
c0105a31:	80 7d f3 00          	cmpb   $0x0,-0xd(%ebp)
c0105a35:	74 10                	je     c0105a47 <_ftoa+0x3eb>
c0105a37:	8b 45 f4             	mov    -0xc(%ebp),%eax
c0105a3a:	8d 50 01             	lea    0x1(%eax),%edx
c0105a3d:	89 55 f4             	mov    %edx,-0xc(%ebp)
c0105a40:	c6 44 05 b0 2d       	movb   $0x2d,-0x50(%ebp,%eax,1)
c0105a45:	eb 32                	jmp    c0105a79 <_ftoa+0x41d>
c0105a47:	8b 45 28             	mov    0x28(%ebp),%eax
c0105a4a:	83 e0 04             	and    $0x4,%eax
c0105a4d:	85 c0                	test   %eax,%eax
c0105a4f:	74 10                	je     c0105a61 <_ftoa+0x405>
c0105a51:	8b 45 f4             	mov    -0xc(%ebp),%eax
c0105a54:	8d 50 01             	lea    0x1(%eax),%edx
c0105a57:	89 55 f4             	mov    %edx,-0xc(%ebp)
c0105a5a:	c6 44 05 b0 2b       	movb   $0x2b,-0x50(%ebp,%eax,1)
c0105a5f:	eb 18                	jmp    c0105a79 <_ftoa+0x41d>
c0105a61:	8b 45 28             	mov    0x28(%ebp),%eax
c0105a64:	83 e0 08             	and    $0x8,%eax
c0105a67:	85 c0                	test   %eax,%eax
c0105a69:	74 0e                	je     c0105a79 <_ftoa+0x41d>
c0105a6b:	8b 45 f4             	mov    -0xc(%ebp),%eax
c0105a6e:	8d 50 01             	lea    0x1(%eax),%edx
c0105a71:	89 55 f4             	mov    %edx,-0xc(%ebp)
c0105a74:	c6 44 05 b0 20       	movb   $0x20,-0x50(%ebp,%eax,1)
c0105a79:	ff 75 28             	push   0x28(%ebp)
c0105a7c:	ff 75 24             	push   0x24(%ebp)
c0105a7f:	ff 75 f4             	push   -0xc(%ebp)
c0105a82:	8d 45 b0             	lea    -0x50(%ebp),%eax
c0105a85:	50                   	push   %eax
c0105a86:	ff 75 14             	push   0x14(%ebp)
c0105a89:	ff 75 10             	push   0x10(%ebp)
c0105a8c:	ff 75 0c             	push   0xc(%ebp)
c0105a8f:	ff 75 08             	push   0x8(%ebp)
c0105a92:	e8 69 f7 ff ff       	call   c0105200 <_out_rev>
c0105a97:	83 c4 20             	add    $0x20,%esp
c0105a9a:	c9                   	leave
c0105a9b:	c3                   	ret

c0105a9c <_etoa>:
c0105a9c:	55                   	push   %ebp
c0105a9d:	89 e5                	mov    %esp,%ebp
c0105a9f:	53                   	push   %ebx
c0105aa0:	83 ec 54             	sub    $0x54,%esp
c0105aa3:	8b 45 18             	mov    0x18(%ebp),%eax
c0105aa6:	89 45 b0             	mov    %eax,-0x50(%ebp)
c0105aa9:	8b 45 1c             	mov    0x1c(%ebp),%eax
c0105aac:	89 45 b4             	mov    %eax,-0x4c(%ebp)
c0105aaf:	dd 45 b0             	fldl   -0x50(%ebp)
c0105ab2:	dd 45 b0             	fldl   -0x50(%ebp)
c0105ab5:	df e9                	fucomip %st(1),%st
c0105ab7:	dd d8                	fstp   %st(0)
c0105ab9:	7a 1e                	jp     c0105ad9 <_etoa+0x3d>
c0105abb:	dd 05 d8 77 10 c0    	fldl   0xc01077d8
c0105ac1:	dd 45 b0             	fldl   -0x50(%ebp)
c0105ac4:	df f1                	fcomip %st(1),%st
c0105ac6:	dd d8                	fstp   %st(0)
c0105ac8:	77 0f                	ja     c0105ad9 <_etoa+0x3d>
c0105aca:	dd 45 b0             	fldl   -0x50(%ebp)
c0105acd:	dd 05 d0 77 10 c0    	fldl   0xc01077d0
c0105ad3:	df f1                	fcomip %st(1),%st
c0105ad5:	dd d8                	fstp   %st(0)
c0105ad7:	76 2b                	jbe    c0105b04 <_etoa+0x68>
c0105ad9:	83 ec 0c             	sub    $0xc,%esp
c0105adc:	ff 75 28             	push   0x28(%ebp)
c0105adf:	ff 75 24             	push   0x24(%ebp)
c0105ae2:	ff 75 20             	push   0x20(%ebp)
c0105ae5:	ff 75 b4             	push   -0x4c(%ebp)
c0105ae8:	ff 75 b0             	push   -0x50(%ebp)
c0105aeb:	ff 75 14             	push   0x14(%ebp)
c0105aee:	ff 75 10             	push   0x10(%ebp)
c0105af1:	ff 75 0c             	push   0xc(%ebp)
c0105af4:	ff 75 08             	push   0x8(%ebp)
c0105af7:	e8 60 fb ff ff       	call   c010565c <_ftoa>
c0105afc:	83 c4 30             	add    $0x30,%esp
c0105aff:	e9 2c 03 00 00       	jmp    c0105e30 <_etoa+0x394>
c0105b04:	dd 45 b0             	fldl   -0x50(%ebp)
c0105b07:	d9 ee                	fldz
c0105b09:	df f1                	fcomip %st(1),%st
c0105b0b:	dd d8                	fstp   %st(0)
c0105b0d:	0f 97 c0             	seta   %al
c0105b10:	88 45 eb             	mov    %al,-0x15(%ebp)
c0105b13:	80 7d eb 00          	cmpb   $0x0,-0x15(%ebp)
c0105b17:	74 08                	je     c0105b21 <_etoa+0x85>
c0105b19:	dd 45 b0             	fldl   -0x50(%ebp)
c0105b1c:	d9 e0                	fchs
c0105b1e:	dd 5d b0             	fstpl  -0x50(%ebp)
c0105b21:	8b 45 28             	mov    0x28(%ebp),%eax
c0105b24:	25 00 04 00 00       	and    $0x400,%eax
c0105b29:	85 c0                	test   %eax,%eax
c0105b2b:	75 07                	jne    c0105b34 <_etoa+0x98>
c0105b2d:	c7 45 20 06 00 00 00 	movl   $0x6,0x20(%ebp)
c0105b34:	dd 45 b0             	fldl   -0x50(%ebp)
c0105b37:	dd 5d c4             	fstpl  -0x3c(%ebp)
c0105b3a:	8b 45 c4             	mov    -0x3c(%ebp),%eax
c0105b3d:	8b 55 c8             	mov    -0x38(%ebp),%edx
c0105b40:	89 d0                	mov    %edx,%eax
c0105b42:	31 d2                	xor    %edx,%edx
c0105b44:	c1 e8 14             	shr    $0x14,%eax
c0105b47:	25 ff 07 00 00       	and    $0x7ff,%eax
c0105b4c:	2d ff 03 00 00       	sub    $0x3ff,%eax
c0105b51:	89 45 e4             	mov    %eax,-0x1c(%ebp)
c0105b54:	8b 45 c4             	mov    -0x3c(%ebp),%eax
c0105b57:	8b 55 c8             	mov    -0x38(%ebp),%edx
c0105b5a:	89 c1                	mov    %eax,%ecx
c0105b5c:	89 d0                	mov    %edx,%eax
c0105b5e:	25 ff ff 0f 00       	and    $0xfffff,%eax
c0105b63:	89 c3                	mov    %eax,%ebx
c0105b65:	89 c8                	mov    %ecx,%eax
c0105b67:	89 da                	mov    %ebx,%edx
c0105b69:	81 ca 00 00 f0 3f    	or     $0x3ff00000,%edx
c0105b6f:	89 45 c4             	mov    %eax,-0x3c(%ebp)
c0105b72:	89 55 c8             	mov    %edx,-0x38(%ebp)
c0105b75:	db 45 e4             	fildl  -0x1c(%ebp)
c0105b78:	dd 05 f8 77 10 c0    	fldl   0xc01077f8
c0105b7e:	de c9                	fmulp  %st,%st(1)
c0105b80:	dd 05 00 78 10 c0    	fldl   0xc0107800
c0105b86:	de c1                	faddp  %st,%st(1)
c0105b88:	dd 45 c4             	fldl   -0x3c(%ebp)
c0105b8b:	dd 05 08 78 10 c0    	fldl   0xc0107808
c0105b91:	de e9                	fsubrp %st,%st(1)
c0105b93:	dd 05 10 78 10 c0    	fldl   0xc0107810
c0105b99:	de c9                	fmulp  %st,%st(1)
c0105b9b:	de c1                	faddp  %st,%st(1)
c0105b9d:	d9 7d ae             	fnstcw -0x52(%ebp)
c0105ba0:	0f b7 45 ae          	movzwl -0x52(%ebp),%eax
c0105ba4:	80 cc 0c             	or     $0xc,%ah
c0105ba7:	66 89 45 ac          	mov    %ax,-0x54(%ebp)
c0105bab:	d9 6d ac             	fldcw  -0x54(%ebp)
c0105bae:	db 5d f4             	fistpl -0xc(%ebp)
c0105bb1:	d9 6d ae             	fldcw  -0x52(%ebp)
c0105bb4:	db 45 f4             	fildl  -0xc(%ebp)
c0105bb7:	dd 05 18 78 10 c0    	fldl   0xc0107818
c0105bbd:	de c9                	fmulp  %st,%st(1)
c0105bbf:	dd 05 f0 77 10 c0    	fldl   0xc01077f0
c0105bc5:	de c1                	faddp  %st,%st(1)
c0105bc7:	d9 6d ac             	fldcw  -0x54(%ebp)
c0105bca:	db 5d e4             	fistpl -0x1c(%ebp)
c0105bcd:	d9 6d ae             	fldcw  -0x52(%ebp)
c0105bd0:	db 45 f4             	fildl  -0xc(%ebp)
c0105bd3:	dd 05 20 78 10 c0    	fldl   0xc0107820
c0105bd9:	de c9                	fmulp  %st,%st(1)
c0105bdb:	db 45 e4             	fildl  -0x1c(%ebp)
c0105bde:	dd 05 28 78 10 c0    	fldl   0xc0107828
c0105be4:	de c9                	fmulp  %st,%st(1)
c0105be6:	de e9                	fsubrp %st,%st(1)
c0105be8:	dd 5d d8             	fstpl  -0x28(%ebp)
c0105beb:	dd 45 d8             	fldl   -0x28(%ebp)
c0105bee:	d8 c8                	fmul   %st(0),%st
c0105bf0:	dd 5d d0             	fstpl  -0x30(%ebp)
c0105bf3:	8b 45 e4             	mov    -0x1c(%ebp),%eax
c0105bf6:	05 ff 03 00 00       	add    $0x3ff,%eax
c0105bfb:	99                   	cltd
c0105bfc:	89 c2                	mov    %eax,%edx
c0105bfe:	b8 00 00 00 00       	mov    $0x0,%eax
c0105c03:	c1 e2 14             	shl    $0x14,%edx
c0105c06:	89 45 c4             	mov    %eax,-0x3c(%ebp)
c0105c09:	89 55 c8             	mov    %edx,-0x38(%ebp)
c0105c0c:	dd 45 c4             	fldl   -0x3c(%ebp)
c0105c0f:	dd 45 d8             	fldl   -0x28(%ebp)
c0105c12:	d9 c0                	fld    %st(0)
c0105c14:	de c1                	faddp  %st,%st(1)
c0105c16:	dd 05 30 78 10 c0    	fldl   0xc0107830
c0105c1c:	dc 65 d8             	fsubl  -0x28(%ebp)
c0105c1f:	dd 45 d0             	fldl   -0x30(%ebp)
c0105c22:	dd 05 38 78 10 c0    	fldl   0xc0107838
c0105c28:	de f9                	fdivrp %st,%st(1)
c0105c2a:	dd 05 40 78 10 c0    	fldl   0xc0107840
c0105c30:	de c1                	faddp  %st,%st(1)
c0105c32:	dd 45 d0             	fldl   -0x30(%ebp)
c0105c35:	de f1                	fdivp  %st,%st(1)
c0105c37:	dd 05 48 78 10 c0    	fldl   0xc0107848
c0105c3d:	de c1                	faddp  %st,%st(1)
c0105c3f:	dd 45 d0             	fldl   -0x30(%ebp)
c0105c42:	de f1                	fdivp  %st,%st(1)
c0105c44:	de c1                	faddp  %st,%st(1)
c0105c46:	de f9                	fdivrp %st,%st(1)
c0105c48:	d9 e8                	fld1
c0105c4a:	de c1                	faddp  %st,%st(1)
c0105c4c:	de c9                	fmulp  %st,%st(1)
c0105c4e:	dd 5d c4             	fstpl  -0x3c(%ebp)
c0105c51:	dd 45 b0             	fldl   -0x50(%ebp)
c0105c54:	dd 45 c4             	fldl   -0x3c(%ebp)
c0105c57:	df f1                	fcomip %st(1),%st
c0105c59:	dd d8                	fstp   %st(0)
c0105c5b:	76 12                	jbe    c0105c6f <_etoa+0x1d3>
c0105c5d:	83 6d f4 01          	subl   $0x1,-0xc(%ebp)
c0105c61:	dd 45 c4             	fldl   -0x3c(%ebp)
c0105c64:	dd 05 40 78 10 c0    	fldl   0xc0107840
c0105c6a:	de f9                	fdivrp %st,%st(1)
c0105c6c:	dd 5d c4             	fstpl  -0x3c(%ebp)
c0105c6f:	83 7d f4 63          	cmpl   $0x63,-0xc(%ebp)
c0105c73:	7f 0d                	jg     c0105c82 <_etoa+0x1e6>
c0105c75:	83 7d f4 9d          	cmpl   $0xffffff9d,-0xc(%ebp)
c0105c79:	7c 07                	jl     c0105c82 <_etoa+0x1e6>
c0105c7b:	b8 04 00 00 00       	mov    $0x4,%eax
c0105c80:	eb 05                	jmp    c0105c87 <_etoa+0x1eb>
c0105c82:	b8 05 00 00 00       	mov    $0x5,%eax
c0105c87:	89 45 f0             	mov    %eax,-0x10(%ebp)
c0105c8a:	8b 45 28             	mov    0x28(%ebp),%eax
c0105c8d:	25 00 08 00 00       	and    $0x800,%eax
c0105c92:	85 c0                	test   %eax,%eax
c0105c94:	74 68                	je     c0105cfe <_etoa+0x262>
c0105c96:	dd 05 50 78 10 c0    	fldl   0xc0107850
c0105c9c:	dd 45 b0             	fldl   -0x50(%ebp)
c0105c9f:	df f1                	fcomip %st(1),%st
c0105ca1:	dd d8                	fstp   %st(0)
c0105ca3:	72 43                	jb     c0105ce8 <_etoa+0x24c>
c0105ca5:	dd 45 b0             	fldl   -0x50(%ebp)
c0105ca8:	dd 05 58 78 10 c0    	fldl   0xc0107858
c0105cae:	df f1                	fcomip %st(1),%st
c0105cb0:	dd d8                	fstp   %st(0)
c0105cb2:	76 34                	jbe    c0105ce8 <_etoa+0x24c>
c0105cb4:	8b 45 20             	mov    0x20(%ebp),%eax
c0105cb7:	39 45 f4             	cmp    %eax,-0xc(%ebp)
c0105cba:	7d 0e                	jge    c0105cca <_etoa+0x22e>
c0105cbc:	8b 45 20             	mov    0x20(%ebp),%eax
c0105cbf:	2b 45 f4             	sub    -0xc(%ebp),%eax
c0105cc2:	83 e8 01             	sub    $0x1,%eax
c0105cc5:	89 45 20             	mov    %eax,0x20(%ebp)
c0105cc8:	eb 07                	jmp    c0105cd1 <_etoa+0x235>
c0105cca:	c7 45 20 00 00 00 00 	movl   $0x0,0x20(%ebp)
c0105cd1:	81 4d 28 00 04 00 00 	orl    $0x400,0x28(%ebp)
c0105cd8:	c7 45 f0 00 00 00 00 	movl   $0x0,-0x10(%ebp)
c0105cdf:	c7 45 f4 00 00 00 00 	movl   $0x0,-0xc(%ebp)
c0105ce6:	eb 16                	jmp    c0105cfe <_etoa+0x262>
c0105ce8:	83 7d 20 00          	cmpl   $0x0,0x20(%ebp)
c0105cec:	74 10                	je     c0105cfe <_etoa+0x262>
c0105cee:	8b 45 28             	mov    0x28(%ebp),%eax
c0105cf1:	25 00 04 00 00       	and    $0x400,%eax
c0105cf6:	85 c0                	test   %eax,%eax
c0105cf8:	74 04                	je     c0105cfe <_etoa+0x262>
c0105cfa:	83 6d 20 01          	subl   $0x1,0x20(%ebp)
c0105cfe:	8b 45 24             	mov    0x24(%ebp),%eax
c0105d01:	89 45 ec             	mov    %eax,-0x14(%ebp)
c0105d04:	8b 45 24             	mov    0x24(%ebp),%eax
c0105d07:	39 45 f0             	cmp    %eax,-0x10(%ebp)
c0105d0a:	73 08                	jae    c0105d14 <_etoa+0x278>
c0105d0c:	8b 45 f0             	mov    -0x10(%ebp),%eax
c0105d0f:	29 45 ec             	sub    %eax,-0x14(%ebp)
c0105d12:	eb 07                	jmp    c0105d1b <_etoa+0x27f>
c0105d14:	c7 45 ec 00 00 00 00 	movl   $0x0,-0x14(%ebp)
c0105d1b:	8b 45 28             	mov    0x28(%ebp),%eax
c0105d1e:	83 e0 02             	and    $0x2,%eax
c0105d21:	85 c0                	test   %eax,%eax
c0105d23:	74 0d                	je     c0105d32 <_etoa+0x296>
c0105d25:	83 7d f0 00          	cmpl   $0x0,-0x10(%ebp)
c0105d29:	74 07                	je     c0105d32 <_etoa+0x296>
c0105d2b:	c7 45 ec 00 00 00 00 	movl   $0x0,-0x14(%ebp)
c0105d32:	83 7d f4 00          	cmpl   $0x0,-0xc(%ebp)
c0105d36:	74 0b                	je     c0105d43 <_etoa+0x2a7>
c0105d38:	dd 45 c4             	fldl   -0x3c(%ebp)
c0105d3b:	dd 45 b0             	fldl   -0x50(%ebp)
c0105d3e:	de f1                	fdivp  %st,%st(1)
c0105d40:	dd 5d b0             	fstpl  -0x50(%ebp)
c0105d43:	8b 45 10             	mov    0x10(%ebp),%eax
c0105d46:	89 45 cc             	mov    %eax,-0x34(%ebp)
c0105d49:	8b 45 28             	mov    0x28(%ebp),%eax
c0105d4c:	80 e4 f7             	and    $0xf7,%ah
c0105d4f:	80 7d eb 00          	cmpb   $0x0,-0x15(%ebp)
c0105d53:	74 07                	je     c0105d5c <_etoa+0x2c0>
c0105d55:	dd 45 b0             	fldl   -0x50(%ebp)
c0105d58:	d9 e0                	fchs
c0105d5a:	eb 03                	jmp    c0105d5f <_etoa+0x2c3>
c0105d5c:	dd 45 b0             	fldl   -0x50(%ebp)
c0105d5f:	83 ec 0c             	sub    $0xc,%esp
c0105d62:	50                   	push   %eax
c0105d63:	ff 75 ec             	push   -0x14(%ebp)
c0105d66:	ff 75 20             	push   0x20(%ebp)
c0105d69:	8d 64 24 f8          	lea    -0x8(%esp),%esp
c0105d6d:	dd 1c 24             	fstpl  (%esp)
c0105d70:	ff 75 14             	push   0x14(%ebp)
c0105d73:	ff 75 10             	push   0x10(%ebp)
c0105d76:	ff 75 0c             	push   0xc(%ebp)
c0105d79:	ff 75 08             	push   0x8(%ebp)
c0105d7c:	e8 db f8 ff ff       	call   c010565c <_ftoa>
c0105d81:	83 c4 30             	add    $0x30,%esp
c0105d84:	89 45 10             	mov    %eax,0x10(%ebp)
c0105d87:	83 7d f0 00          	cmpl   $0x0,-0x10(%ebp)
c0105d8b:	0f 84 9c 00 00 00    	je     c0105e2d <_etoa+0x391>
c0105d91:	8b 45 10             	mov    0x10(%ebp),%eax
c0105d94:	8d 50 01             	lea    0x1(%eax),%edx
c0105d97:	89 55 10             	mov    %edx,0x10(%ebp)
c0105d9a:	8b 55 28             	mov    0x28(%ebp),%edx
c0105d9d:	83 e2 20             	and    $0x20,%edx
c0105da0:	85 d2                	test   %edx,%edx
c0105da2:	74 07                	je     c0105dab <_etoa+0x30f>
c0105da4:	ba 45 00 00 00       	mov    $0x45,%edx
c0105da9:	eb 05                	jmp    c0105db0 <_etoa+0x314>
c0105dab:	ba 65 00 00 00       	mov    $0x65,%edx
c0105db0:	ff 75 14             	push   0x14(%ebp)
c0105db3:	50                   	push   %eax
c0105db4:	ff 75 0c             	push   0xc(%ebp)
c0105db7:	52                   	push   %edx
c0105db8:	8b 45 08             	mov    0x8(%ebp),%eax
c0105dbb:	ff d0                	call   *%eax
c0105dbd:	83 c4 10             	add    $0x10,%esp
c0105dc0:	8b 45 f0             	mov    -0x10(%ebp),%eax
c0105dc3:	8d 48 ff             	lea    -0x1(%eax),%ecx
c0105dc6:	8b 45 f4             	mov    -0xc(%ebp),%eax
c0105dc9:	c1 e8 1f             	shr    $0x1f,%eax
c0105dcc:	0f b6 d0             	movzbl %al,%edx
c0105dcf:	8b 45 f4             	mov    -0xc(%ebp),%eax
c0105dd2:	89 c3                	mov    %eax,%ebx
c0105dd4:	f7 db                	neg    %ebx
c0105dd6:	0f 49 c3             	cmovns %ebx,%eax
c0105dd9:	83 ec 08             	sub    $0x8,%esp
c0105ddc:	6a 05                	push   $0x5
c0105dde:	51                   	push   %ecx
c0105ddf:	6a 00                	push   $0x0
c0105de1:	6a 0a                	push   $0xa
c0105de3:	52                   	push   %edx
c0105de4:	50                   	push   %eax
c0105de5:	ff 75 14             	push   0x14(%ebp)
c0105de8:	ff 75 10             	push   0x10(%ebp)
c0105deb:	ff 75 0c             	push   0xc(%ebp)
c0105dee:	ff 75 08             	push   0x8(%ebp)
c0105df1:	e8 8a f6 ff ff       	call   c0105480 <_ntoa_long>
c0105df6:	83 c4 30             	add    $0x30,%esp
c0105df9:	89 45 10             	mov    %eax,0x10(%ebp)
c0105dfc:	8b 45 28             	mov    0x28(%ebp),%eax
c0105dff:	83 e0 02             	and    $0x2,%eax
c0105e02:	85 c0                	test   %eax,%eax
c0105e04:	74 27                	je     c0105e2d <_etoa+0x391>
c0105e06:	eb 1a                	jmp    c0105e22 <_etoa+0x386>
c0105e08:	8b 45 10             	mov    0x10(%ebp),%eax
c0105e0b:	8d 50 01             	lea    0x1(%eax),%edx
c0105e0e:	89 55 10             	mov    %edx,0x10(%ebp)
c0105e11:	ff 75 14             	push   0x14(%ebp)
c0105e14:	50                   	push   %eax
c0105e15:	ff 75 0c             	push   0xc(%ebp)
c0105e18:	6a 20                	push   $0x20
c0105e1a:	8b 45 08             	mov    0x8(%ebp),%eax
c0105e1d:	ff d0                	call   *%eax
c0105e1f:	83 c4 10             	add    $0x10,%esp
c0105e22:	8b 45 10             	mov    0x10(%ebp),%eax
c0105e25:	2b 45 cc             	sub    -0x34(%ebp),%eax
c0105e28:	3b 45 24             	cmp    0x24(%ebp),%eax
c0105e2b:	72 db                	jb     c0105e08 <_etoa+0x36c>
c0105e2d:	8b 45 10             	mov    0x10(%ebp),%eax
c0105e30:	8b 5d fc             	mov    -0x4(%ebp),%ebx
c0105e33:	c9                   	leave
c0105e34:	c3                   	ret

c0105e35 <_vsnprintf>:
c0105e35:	55                   	push   %ebp
c0105e36:	89 e5                	mov    %esp,%ebp
c0105e38:	57                   	push   %edi
c0105e39:	56                   	push   %esi
c0105e3a:	53                   	push   %ebx
c0105e3b:	83 ec 6c             	sub    $0x6c,%esp
c0105e3e:	c7 45 d4 00 00 00 00 	movl   $0x0,-0x2c(%ebp)
c0105e45:	83 7d 0c 00          	cmpl   $0x0,0xc(%ebp)
c0105e49:	0f 85 8c 09 00 00    	jne    c01067db <_vsnprintf+0x9a6>
c0105e4f:	c7 45 08 eb 50 10 c0 	movl   $0xc01050eb,0x8(%ebp)
c0105e56:	e9 80 09 00 00       	jmp    c01067db <_vsnprintf+0x9a6>
c0105e5b:	8b 45 14             	mov    0x14(%ebp),%eax
c0105e5e:	0f b6 00             	movzbl (%eax),%eax
c0105e61:	3c 25                	cmp    $0x25,%al
c0105e63:	74 30                	je     c0105e95 <_vsnprintf+0x60>
c0105e65:	8b 45 d4             	mov    -0x2c(%ebp),%eax
c0105e68:	8d 50 01             	lea    0x1(%eax),%edx
c0105e6b:	89 55 d4             	mov    %edx,-0x2c(%ebp)
c0105e6e:	8b 55 14             	mov    0x14(%ebp),%edx
c0105e71:	0f b6 12             	movzbl (%edx),%edx
c0105e74:	0f be d2             	movsbl %dl,%edx
c0105e77:	ff 75 10             	push   0x10(%ebp)
c0105e7a:	50                   	push   %eax
c0105e7b:	ff 75 0c             	push   0xc(%ebp)
c0105e7e:	52                   	push   %edx
c0105e7f:	8b 45 08             	mov    0x8(%ebp),%eax
c0105e82:	ff d0                	call   *%eax
c0105e84:	83 c4 10             	add    $0x10,%esp
c0105e87:	8b 45 14             	mov    0x14(%ebp),%eax
c0105e8a:	83 c0 01             	add    $0x1,%eax
c0105e8d:	89 45 14             	mov    %eax,0x14(%ebp)
c0105e90:	e9 46 09 00 00       	jmp    c01067db <_vsnprintf+0x9a6>
c0105e95:	8b 45 14             	mov    0x14(%ebp),%eax
c0105e98:	83 c0 01             	add    $0x1,%eax
c0105e9b:	89 45 14             	mov    %eax,0x14(%ebp)
c0105e9e:	c7 45 e4 00 00 00 00 	movl   $0x0,-0x1c(%ebp)
c0105ea5:	8b 45 14             	mov    0x14(%ebp),%eax
c0105ea8:	0f b6 00             	movzbl (%eax),%eax
c0105eab:	0f be c0             	movsbl %al,%eax
c0105eae:	83 e8 20             	sub    $0x20,%eax
c0105eb1:	83 f8 10             	cmp    $0x10,%eax
c0105eb4:	77 77                	ja     c0105f2d <_vsnprintf+0xf8>
c0105eb6:	8b 04 85 14 76 10 c0 	mov    -0x3fef89ec(,%eax,4),%eax
c0105ebd:	ff e0                	jmp    *%eax
c0105ebf:	83 4d e4 01          	orl    $0x1,-0x1c(%ebp)
c0105ec3:	8b 45 14             	mov    0x14(%ebp),%eax
c0105ec6:	83 c0 01             	add    $0x1,%eax
c0105ec9:	89 45 14             	mov    %eax,0x14(%ebp)
c0105ecc:	c7 45 d8 01 00 00 00 	movl   $0x1,-0x28(%ebp)
c0105ed3:	eb 60                	jmp    c0105f35 <_vsnprintf+0x100>
c0105ed5:	83 4d e4 02          	orl    $0x2,-0x1c(%ebp)
c0105ed9:	8b 45 14             	mov    0x14(%ebp),%eax
c0105edc:	83 c0 01             	add    $0x1,%eax
c0105edf:	89 45 14             	mov    %eax,0x14(%ebp)
c0105ee2:	c7 45 d8 01 00 00 00 	movl   $0x1,-0x28(%ebp)
c0105ee9:	eb 4a                	jmp    c0105f35 <_vsnprintf+0x100>
c0105eeb:	83 4d e4 04          	orl    $0x4,-0x1c(%ebp)
c0105eef:	8b 45 14             	mov    0x14(%ebp),%eax
c0105ef2:	83 c0 01             	add    $0x1,%eax
c0105ef5:	89 45 14             	mov    %eax,0x14(%ebp)
c0105ef8:	c7 45 d8 01 00 00 00 	movl   $0x1,-0x28(%ebp)
c0105eff:	eb 34                	jmp    c0105f35 <_vsnprintf+0x100>
c0105f01:	83 4d e4 08          	orl    $0x8,-0x1c(%ebp)
c0105f05:	8b 45 14             	mov    0x14(%ebp),%eax
c0105f08:	83 c0 01             	add    $0x1,%eax
c0105f0b:	89 45 14             	mov    %eax,0x14(%ebp)
c0105f0e:	c7 45 d8 01 00 00 00 	movl   $0x1,-0x28(%ebp)
c0105f15:	eb 1e                	jmp    c0105f35 <_vsnprintf+0x100>
c0105f17:	83 4d e4 10          	orl    $0x10,-0x1c(%ebp)
c0105f1b:	8b 45 14             	mov    0x14(%ebp),%eax
c0105f1e:	83 c0 01             	add    $0x1,%eax
c0105f21:	89 45 14             	mov    %eax,0x14(%ebp)
c0105f24:	c7 45 d8 01 00 00 00 	movl   $0x1,-0x28(%ebp)
c0105f2b:	eb 08                	jmp    c0105f35 <_vsnprintf+0x100>
c0105f2d:	c7 45 d8 00 00 00 00 	movl   $0x0,-0x28(%ebp)
c0105f34:	90                   	nop
c0105f35:	83 7d d8 00          	cmpl   $0x0,-0x28(%ebp)
c0105f39:	0f 85 66 ff ff ff    	jne    c0105ea5 <_vsnprintf+0x70>
c0105f3f:	c7 45 e0 00 00 00 00 	movl   $0x0,-0x20(%ebp)
c0105f46:	8b 45 14             	mov    0x14(%ebp),%eax
c0105f49:	0f b6 00             	movzbl (%eax),%eax
c0105f4c:	0f be c0             	movsbl %al,%eax
c0105f4f:	83 ec 0c             	sub    $0xc,%esp
c0105f52:	50                   	push   %eax
c0105f53:	e8 26 f2 ff ff       	call   c010517e <_is_digit>
c0105f58:	83 c4 10             	add    $0x10,%esp
c0105f5b:	84 c0                	test   %al,%al
c0105f5d:	74 14                	je     c0105f73 <_vsnprintf+0x13e>
c0105f5f:	83 ec 0c             	sub    $0xc,%esp
c0105f62:	8d 45 14             	lea    0x14(%ebp),%eax
c0105f65:	50                   	push   %eax
c0105f66:	e8 3c f2 ff ff       	call   c01051a7 <_atoi>
c0105f6b:	83 c4 10             	add    $0x10,%esp
c0105f6e:	89 45 e0             	mov    %eax,-0x20(%ebp)
c0105f71:	eb 3b                	jmp    c0105fae <_vsnprintf+0x179>
c0105f73:	8b 45 14             	mov    0x14(%ebp),%eax
c0105f76:	0f b6 00             	movzbl (%eax),%eax
c0105f79:	3c 2a                	cmp    $0x2a,%al
c0105f7b:	75 31                	jne    c0105fae <_vsnprintf+0x179>
c0105f7d:	8b 45 18             	mov    0x18(%ebp),%eax
c0105f80:	8d 50 04             	lea    0x4(%eax),%edx
c0105f83:	89 55 18             	mov    %edx,0x18(%ebp)
c0105f86:	8b 00                	mov    (%eax),%eax
c0105f88:	89 45 c0             	mov    %eax,-0x40(%ebp)
c0105f8b:	83 7d c0 00          	cmpl   $0x0,-0x40(%ebp)
c0105f8f:	79 0e                	jns    c0105f9f <_vsnprintf+0x16a>
c0105f91:	83 4d e4 02          	orl    $0x2,-0x1c(%ebp)
c0105f95:	8b 45 c0             	mov    -0x40(%ebp),%eax
c0105f98:	f7 d8                	neg    %eax
c0105f9a:	89 45 e0             	mov    %eax,-0x20(%ebp)
c0105f9d:	eb 06                	jmp    c0105fa5 <_vsnprintf+0x170>
c0105f9f:	8b 45 c0             	mov    -0x40(%ebp),%eax
c0105fa2:	89 45 e0             	mov    %eax,-0x20(%ebp)
c0105fa5:	8b 45 14             	mov    0x14(%ebp),%eax
c0105fa8:	83 c0 01             	add    $0x1,%eax
c0105fab:	89 45 14             	mov    %eax,0x14(%ebp)
c0105fae:	c7 45 dc 00 00 00 00 	movl   $0x0,-0x24(%ebp)
c0105fb5:	8b 45 14             	mov    0x14(%ebp),%eax
c0105fb8:	0f b6 00             	movzbl (%eax),%eax
c0105fbb:	3c 2e                	cmp    $0x2e,%al
c0105fbd:	75 6e                	jne    c010602d <_vsnprintf+0x1f8>
c0105fbf:	81 4d e4 00 04 00 00 	orl    $0x400,-0x1c(%ebp)
c0105fc6:	8b 45 14             	mov    0x14(%ebp),%eax
c0105fc9:	83 c0 01             	add    $0x1,%eax
c0105fcc:	89 45 14             	mov    %eax,0x14(%ebp)
c0105fcf:	8b 45 14             	mov    0x14(%ebp),%eax
c0105fd2:	0f b6 00             	movzbl (%eax),%eax
c0105fd5:	0f be c0             	movsbl %al,%eax
c0105fd8:	83 ec 0c             	sub    $0xc,%esp
c0105fdb:	50                   	push   %eax
c0105fdc:	e8 9d f1 ff ff       	call   c010517e <_is_digit>
c0105fe1:	83 c4 10             	add    $0x10,%esp
c0105fe4:	84 c0                	test   %al,%al
c0105fe6:	74 14                	je     c0105ffc <_vsnprintf+0x1c7>
c0105fe8:	83 ec 0c             	sub    $0xc,%esp
c0105feb:	8d 45 14             	lea    0x14(%ebp),%eax
c0105fee:	50                   	push   %eax
c0105fef:	e8 b3 f1 ff ff       	call   c01051a7 <_atoi>
c0105ff4:	83 c4 10             	add    $0x10,%esp
c0105ff7:	89 45 dc             	mov    %eax,-0x24(%ebp)
c0105ffa:	eb 31                	jmp    c010602d <_vsnprintf+0x1f8>
c0105ffc:	8b 45 14             	mov    0x14(%ebp),%eax
c0105fff:	0f b6 00             	movzbl (%eax),%eax
c0106002:	3c 2a                	cmp    $0x2a,%al
c0106004:	75 27                	jne    c010602d <_vsnprintf+0x1f8>
c0106006:	8b 45 18             	mov    0x18(%ebp),%eax
c0106009:	8d 50 04             	lea    0x4(%eax),%edx
c010600c:	89 55 18             	mov    %edx,0x18(%ebp)
c010600f:	8b 00                	mov    (%eax),%eax
c0106011:	89 45 bc             	mov    %eax,-0x44(%ebp)
c0106014:	8b 45 bc             	mov    -0x44(%ebp),%eax
c0106017:	ba 00 00 00 00       	mov    $0x0,%edx
c010601c:	85 c0                	test   %eax,%eax
c010601e:	0f 48 c2             	cmovs  %edx,%eax
c0106021:	89 45 dc             	mov    %eax,-0x24(%ebp)
c0106024:	8b 45 14             	mov    0x14(%ebp),%eax
c0106027:	83 c0 01             	add    $0x1,%eax
c010602a:	89 45 14             	mov    %eax,0x14(%ebp)
c010602d:	8b 45 14             	mov    0x14(%ebp),%eax
c0106030:	0f b6 00             	movzbl (%eax),%eax
c0106033:	0f be c0             	movsbl %al,%eax
c0106036:	83 f8 7a             	cmp    $0x7a,%eax
c0106039:	0f 84 8a 00 00 00    	je     c01060c9 <_vsnprintf+0x294>
c010603f:	83 f8 7a             	cmp    $0x7a,%eax
c0106042:	0f 8f 93 00 00 00    	jg     c01060db <_vsnprintf+0x2a6>
c0106048:	83 f8 6c             	cmp    $0x6c,%eax
c010604b:	74 15                	je     c0106062 <_vsnprintf+0x22d>
c010604d:	83 f8 6c             	cmp    $0x6c,%eax
c0106050:	0f 8f 85 00 00 00    	jg     c01060db <_vsnprintf+0x2a6>
c0106056:	83 f8 68             	cmp    $0x68,%eax
c0106059:	74 33                	je     c010608e <_vsnprintf+0x259>
c010605b:	83 f8 6a             	cmp    $0x6a,%eax
c010605e:	74 57                	je     c01060b7 <_vsnprintf+0x282>
c0106060:	eb 79                	jmp    c01060db <_vsnprintf+0x2a6>
c0106062:	81 4d e4 00 01 00 00 	orl    $0x100,-0x1c(%ebp)
c0106069:	8b 45 14             	mov    0x14(%ebp),%eax
c010606c:	83 c0 01             	add    $0x1,%eax
c010606f:	89 45 14             	mov    %eax,0x14(%ebp)
c0106072:	8b 45 14             	mov    0x14(%ebp),%eax
c0106075:	0f b6 00             	movzbl (%eax),%eax
c0106078:	3c 6c                	cmp    $0x6c,%al
c010607a:	75 62                	jne    c01060de <_vsnprintf+0x2a9>
c010607c:	81 4d e4 00 02 00 00 	orl    $0x200,-0x1c(%ebp)
c0106083:	8b 45 14             	mov    0x14(%ebp),%eax
c0106086:	83 c0 01             	add    $0x1,%eax
c0106089:	89 45 14             	mov    %eax,0x14(%ebp)
c010608c:	eb 50                	jmp    c01060de <_vsnprintf+0x2a9>
c010608e:	81 4d e4 80 00 00 00 	orl    $0x80,-0x1c(%ebp)
c0106095:	8b 45 14             	mov    0x14(%ebp),%eax
c0106098:	83 c0 01             	add    $0x1,%eax
c010609b:	89 45 14             	mov    %eax,0x14(%ebp)
c010609e:	8b 45 14             	mov    0x14(%ebp),%eax
c01060a1:	0f b6 00             	movzbl (%eax),%eax
c01060a4:	3c 68                	cmp    $0x68,%al
c01060a6:	75 39                	jne    c01060e1 <_vsnprintf+0x2ac>
c01060a8:	83 4d e4 40          	orl    $0x40,-0x1c(%ebp)
c01060ac:	8b 45 14             	mov    0x14(%ebp),%eax
c01060af:	83 c0 01             	add    $0x1,%eax
c01060b2:	89 45 14             	mov    %eax,0x14(%ebp)
c01060b5:	eb 2a                	jmp    c01060e1 <_vsnprintf+0x2ac>
c01060b7:	81 4d e4 00 02 00 00 	orl    $0x200,-0x1c(%ebp)
c01060be:	8b 45 14             	mov    0x14(%ebp),%eax
c01060c1:	83 c0 01             	add    $0x1,%eax
c01060c4:	89 45 14             	mov    %eax,0x14(%ebp)
c01060c7:	eb 19                	jmp    c01060e2 <_vsnprintf+0x2ad>
c01060c9:	81 4d e4 00 01 00 00 	orl    $0x100,-0x1c(%ebp)
c01060d0:	8b 45 14             	mov    0x14(%ebp),%eax
c01060d3:	83 c0 01             	add    $0x1,%eax
c01060d6:	89 45 14             	mov    %eax,0x14(%ebp)
c01060d9:	eb 07                	jmp    c01060e2 <_vsnprintf+0x2ad>
c01060db:	90                   	nop
c01060dc:	eb 04                	jmp    c01060e2 <_vsnprintf+0x2ad>
c01060de:	90                   	nop
c01060df:	eb 01                	jmp    c01060e2 <_vsnprintf+0x2ad>
c01060e1:	90                   	nop
c01060e2:	8b 45 14             	mov    0x14(%ebp),%eax
c01060e5:	0f b6 00             	movzbl (%eax),%eax
c01060e8:	0f be c0             	movsbl %al,%eax
c01060eb:	83 f8 67             	cmp    $0x67,%eax
c01060ee:	7f 6a                	jg     c010615a <_vsnprintf+0x325>
c01060f0:	83 f8 25             	cmp    $0x25,%eax
c01060f3:	7d 50                	jge    c0106145 <_vsnprintf+0x310>
c01060f5:	e9 b5 06 00 00       	jmp    c01067af <_vsnprintf+0x97a>
c01060fa:	83 e8 69             	sub    $0x69,%eax
c01060fd:	ba 01 00 00 00       	mov    $0x1,%edx
c0106102:	89 c1                	mov    %eax,%ecx
c0106104:	d3 e2                	shl    %cl,%edx
c0106106:	89 d0                	mov    %edx,%eax
c0106108:	89 c2                	mov    %eax,%edx
c010610a:	81 e2 41 90 00 00    	and    $0x9041,%edx
c0106110:	85 d2                	test   %edx,%edx
c0106112:	0f 95 c2             	setne  %dl
c0106115:	84 d2                	test   %dl,%dl
c0106117:	75 54                	jne    c010616d <_vsnprintf+0x338>
c0106119:	89 c2                	mov    %eax,%edx
c010611b:	81 e2 80 00 00 00    	and    $0x80,%edx
c0106121:	85 d2                	test   %edx,%edx
c0106123:	0f 95 c2             	setne  %dl
c0106126:	84 d2                	test   %dl,%dl
c0106128:	0f 85 cf 05 00 00    	jne    c01066fd <_vsnprintf+0x8c8>
c010612e:	25 00 04 00 00       	and    $0x400,%eax
c0106133:	85 c0                	test   %eax,%eax
c0106135:	0f 95 c0             	setne  %al
c0106138:	84 c0                	test   %al,%al
c010613a:	0f 85 b0 04 00 00    	jne    c01065f0 <_vsnprintf+0x7bb>
c0106140:	e9 6a 06 00 00       	jmp    c01067af <_vsnprintf+0x97a>
c0106145:	83 e8 25             	sub    $0x25,%eax
c0106148:	83 f8 42             	cmp    $0x42,%eax
c010614b:	0f 87 5e 06 00 00    	ja     c01067af <_vsnprintf+0x97a>
c0106151:	8b 04 85 58 76 10 c0 	mov    -0x3fef89a8(,%eax,4),%eax
c0106158:	ff e0                	jmp    *%eax
c010615a:	83 f8 78             	cmp    $0x78,%eax
c010615d:	0f 8f 4c 06 00 00    	jg     c01067af <_vsnprintf+0x97a>
c0106163:	83 f8 69             	cmp    $0x69,%eax
c0106166:	7d 92                	jge    c01060fa <_vsnprintf+0x2c5>
c0106168:	e9 42 06 00 00       	jmp    c01067af <_vsnprintf+0x97a>
c010616d:	8b 45 14             	mov    0x14(%ebp),%eax
c0106170:	0f b6 00             	movzbl (%eax),%eax
c0106173:	3c 78                	cmp    $0x78,%al
c0106175:	74 0a                	je     c0106181 <_vsnprintf+0x34c>
c0106177:	8b 45 14             	mov    0x14(%ebp),%eax
c010617a:	0f b6 00             	movzbl (%eax),%eax
c010617d:	3c 58                	cmp    $0x58,%al
c010617f:	75 09                	jne    c010618a <_vsnprintf+0x355>
c0106181:	c7 45 d0 10 00 00 00 	movl   $0x10,-0x30(%ebp)
c0106188:	eb 31                	jmp    c01061bb <_vsnprintf+0x386>
c010618a:	8b 45 14             	mov    0x14(%ebp),%eax
c010618d:	0f b6 00             	movzbl (%eax),%eax
c0106190:	3c 6f                	cmp    $0x6f,%al
c0106192:	75 09                	jne    c010619d <_vsnprintf+0x368>
c0106194:	c7 45 d0 08 00 00 00 	movl   $0x8,-0x30(%ebp)
c010619b:	eb 1e                	jmp    c01061bb <_vsnprintf+0x386>
c010619d:	8b 45 14             	mov    0x14(%ebp),%eax
c01061a0:	0f b6 00             	movzbl (%eax),%eax
c01061a3:	3c 62                	cmp    $0x62,%al
c01061a5:	75 09                	jne    c01061b0 <_vsnprintf+0x37b>
c01061a7:	c7 45 d0 02 00 00 00 	movl   $0x2,-0x30(%ebp)
c01061ae:	eb 0b                	jmp    c01061bb <_vsnprintf+0x386>
c01061b0:	c7 45 d0 0a 00 00 00 	movl   $0xa,-0x30(%ebp)
c01061b7:	83 65 e4 ef          	andl   $0xffffffef,-0x1c(%ebp)
c01061bb:	8b 45 14             	mov    0x14(%ebp),%eax
c01061be:	0f b6 00             	movzbl (%eax),%eax
c01061c1:	3c 58                	cmp    $0x58,%al
c01061c3:	75 04                	jne    c01061c9 <_vsnprintf+0x394>
c01061c5:	83 4d e4 20          	orl    $0x20,-0x1c(%ebp)
c01061c9:	8b 45 14             	mov    0x14(%ebp),%eax
c01061cc:	0f b6 00             	movzbl (%eax),%eax
c01061cf:	3c 69                	cmp    $0x69,%al
c01061d1:	74 0e                	je     c01061e1 <_vsnprintf+0x3ac>
c01061d3:	8b 45 14             	mov    0x14(%ebp),%eax
c01061d6:	0f b6 00             	movzbl (%eax),%eax
c01061d9:	3c 64                	cmp    $0x64,%al
c01061db:	74 04                	je     c01061e1 <_vsnprintf+0x3ac>
c01061dd:	83 65 e4 f3          	andl   $0xfffffff3,-0x1c(%ebp)
c01061e1:	8b 45 e4             	mov    -0x1c(%ebp),%eax
c01061e4:	25 00 04 00 00       	and    $0x400,%eax
c01061e9:	85 c0                	test   %eax,%eax
c01061eb:	74 04                	je     c01061f1 <_vsnprintf+0x3bc>
c01061ed:	83 65 e4 fe          	andl   $0xfffffffe,-0x1c(%ebp)
c01061f1:	8b 45 14             	mov    0x14(%ebp),%eax
c01061f4:	0f b6 00             	movzbl (%eax),%eax
c01061f7:	3c 69                	cmp    $0x69,%al
c01061f9:	74 0e                	je     c0106209 <_vsnprintf+0x3d4>
c01061fb:	8b 45 14             	mov    0x14(%ebp),%eax
c01061fe:	0f b6 00             	movzbl (%eax),%eax
c0106201:	3c 64                	cmp    $0x64,%al
c0106203:	0f 85 70 01 00 00    	jne    c0106379 <_vsnprintf+0x544>
c0106209:	8b 45 e4             	mov    -0x1c(%ebp),%eax
c010620c:	25 00 02 00 00       	and    $0x200,%eax
c0106211:	85 c0                	test   %eax,%eax
c0106213:	0f 84 84 00 00 00    	je     c010629d <_vsnprintf+0x468>
c0106219:	8b 45 18             	mov    0x18(%ebp),%eax
c010621c:	8d 50 08             	lea    0x8(%eax),%edx
c010621f:	89 55 18             	mov    %edx,0x18(%ebp)
c0106222:	8b 50 04             	mov    0x4(%eax),%edx
c0106225:	8b 00                	mov    (%eax),%eax
c0106227:	89 45 a0             	mov    %eax,-0x60(%ebp)
c010622a:	89 55 a4             	mov    %edx,-0x5c(%ebp)
c010622d:	8b 45 d0             	mov    -0x30(%ebp),%eax
c0106230:	ba 00 00 00 00       	mov    $0x0,%edx
c0106235:	89 45 88             	mov    %eax,-0x78(%ebp)
c0106238:	89 55 8c             	mov    %edx,-0x74(%ebp)
c010623b:	8b 45 a4             	mov    -0x5c(%ebp),%eax
c010623e:	c1 e8 1f             	shr    $0x1f,%eax
c0106241:	0f b6 c8             	movzbl %al,%ecx
c0106244:	8b 45 a0             	mov    -0x60(%ebp),%eax
c0106247:	8b 55 a4             	mov    -0x5c(%ebp),%edx
c010624a:	89 c3                	mov    %eax,%ebx
c010624c:	f7 db                	neg    %ebx
c010624e:	89 de                	mov    %ebx,%esi
c0106250:	89 d3                	mov    %edx,%ebx
c0106252:	83 d3 00             	adc    $0x0,%ebx
c0106255:	89 df                	mov    %ebx,%edi
c0106257:	f7 df                	neg    %edi
c0106259:	89 c3                	mov    %eax,%ebx
c010625b:	0f 49 de             	cmovns %esi,%ebx
c010625e:	89 5d 90             	mov    %ebx,-0x70(%ebp)
c0106261:	89 d0                	mov    %edx,%eax
c0106263:	0f 49 c7             	cmovns %edi,%eax
c0106266:	89 45 94             	mov    %eax,-0x6c(%ebp)
c0106269:	8b 45 90             	mov    -0x70(%ebp),%eax
c010626c:	8b 55 94             	mov    -0x6c(%ebp),%edx
c010626f:	ff 75 e4             	push   -0x1c(%ebp)
c0106272:	ff 75 e0             	push   -0x20(%ebp)
c0106275:	ff 75 dc             	push   -0x24(%ebp)
c0106278:	ff 75 8c             	push   -0x74(%ebp)
c010627b:	ff 75 88             	push   -0x78(%ebp)
c010627e:	51                   	push   %ecx
c010627f:	52                   	push   %edx
c0106280:	50                   	push   %eax
c0106281:	ff 75 10             	push   0x10(%ebp)
c0106284:	ff 75 d4             	push   -0x2c(%ebp)
c0106287:	ff 75 0c             	push   0xc(%ebp)
c010628a:	ff 75 08             	push   0x8(%ebp)
c010628d:	e8 b7 f2 ff ff       	call   c0105549 <_ntoa_long_long>
c0106292:	83 c4 30             	add    $0x30,%esp
c0106295:	89 45 d4             	mov    %eax,-0x2c(%ebp)
c0106298:	e9 da 01 00 00       	jmp    c0106477 <_vsnprintf+0x642>
c010629d:	8b 45 e4             	mov    -0x1c(%ebp),%eax
c01062a0:	25 00 01 00 00       	and    $0x100,%eax
c01062a5:	85 c0                	test   %eax,%eax
c01062a7:	74 4e                	je     c01062f7 <_vsnprintf+0x4c2>
c01062a9:	8b 45 18             	mov    0x18(%ebp),%eax
c01062ac:	8d 50 04             	lea    0x4(%eax),%edx
c01062af:	89 55 18             	mov    %edx,0x18(%ebp)
c01062b2:	8b 00                	mov    (%eax),%eax
c01062b4:	89 45 ac             	mov    %eax,-0x54(%ebp)
c01062b7:	8b 45 ac             	mov    -0x54(%ebp),%eax
c01062ba:	c1 e8 1f             	shr    $0x1f,%eax
c01062bd:	0f b6 d0             	movzbl %al,%edx
c01062c0:	8b 45 ac             	mov    -0x54(%ebp),%eax
c01062c3:	89 c1                	mov    %eax,%ecx
c01062c5:	f7 d9                	neg    %ecx
c01062c7:	0f 49 c1             	cmovns %ecx,%eax
c01062ca:	83 ec 08             	sub    $0x8,%esp
c01062cd:	ff 75 e4             	push   -0x1c(%ebp)
c01062d0:	ff 75 e0             	push   -0x20(%ebp)
c01062d3:	ff 75 dc             	push   -0x24(%ebp)
c01062d6:	ff 75 d0             	push   -0x30(%ebp)
c01062d9:	52                   	push   %edx
c01062da:	50                   	push   %eax
c01062db:	ff 75 10             	push   0x10(%ebp)
c01062de:	ff 75 d4             	push   -0x2c(%ebp)
c01062e1:	ff 75 0c             	push   0xc(%ebp)
c01062e4:	ff 75 08             	push   0x8(%ebp)
c01062e7:	e8 94 f1 ff ff       	call   c0105480 <_ntoa_long>
c01062ec:	83 c4 30             	add    $0x30,%esp
c01062ef:	89 45 d4             	mov    %eax,-0x2c(%ebp)
c01062f2:	e9 80 01 00 00       	jmp    c0106477 <_vsnprintf+0x642>
c01062f7:	8b 45 e4             	mov    -0x1c(%ebp),%eax
c01062fa:	83 e0 40             	and    $0x40,%eax
c01062fd:	85 c0                	test   %eax,%eax
c01062ff:	74 10                	je     c0106311 <_vsnprintf+0x4dc>
c0106301:	8b 45 18             	mov    0x18(%ebp),%eax
c0106304:	8d 50 04             	lea    0x4(%eax),%edx
c0106307:	89 55 18             	mov    %edx,0x18(%ebp)
c010630a:	8b 00                	mov    (%eax),%eax
c010630c:	0f be c0             	movsbl %al,%eax
c010630f:	eb 25                	jmp    c0106336 <_vsnprintf+0x501>
c0106311:	8b 45 e4             	mov    -0x1c(%ebp),%eax
c0106314:	25 80 00 00 00       	and    $0x80,%eax
c0106319:	85 c0                	test   %eax,%eax
c010631b:	74 0e                	je     c010632b <_vsnprintf+0x4f6>
c010631d:	8b 45 18             	mov    0x18(%ebp),%eax
c0106320:	8d 50 04             	lea    0x4(%eax),%edx
c0106323:	89 55 18             	mov    %edx,0x18(%ebp)
c0106326:	8b 00                	mov    (%eax),%eax
c0106328:	98                   	cwtl
c0106329:	eb 0b                	jmp    c0106336 <_vsnprintf+0x501>
c010632b:	8b 45 18             	mov    0x18(%ebp),%eax
c010632e:	8d 50 04             	lea    0x4(%eax),%edx
c0106331:	89 55 18             	mov    %edx,0x18(%ebp)
c0106334:	8b 00                	mov    (%eax),%eax
c0106336:	89 45 b0             	mov    %eax,-0x50(%ebp)
c0106339:	8b 45 b0             	mov    -0x50(%ebp),%eax
c010633c:	c1 e8 1f             	shr    $0x1f,%eax
c010633f:	0f b6 d0             	movzbl %al,%edx
c0106342:	8b 45 b0             	mov    -0x50(%ebp),%eax
c0106345:	89 c1                	mov    %eax,%ecx
c0106347:	f7 d9                	neg    %ecx
c0106349:	0f 49 c1             	cmovns %ecx,%eax
c010634c:	83 ec 08             	sub    $0x8,%esp
c010634f:	ff 75 e4             	push   -0x1c(%ebp)
c0106352:	ff 75 e0             	push   -0x20(%ebp)
c0106355:	ff 75 dc             	push   -0x24(%ebp)
c0106358:	ff 75 d0             	push   -0x30(%ebp)
c010635b:	52                   	push   %edx
c010635c:	50                   	push   %eax
c010635d:	ff 75 10             	push   0x10(%ebp)
c0106360:	ff 75 d4             	push   -0x2c(%ebp)
c0106363:	ff 75 0c             	push   0xc(%ebp)
c0106366:	ff 75 08             	push   0x8(%ebp)
c0106369:	e8 12 f1 ff ff       	call   c0105480 <_ntoa_long>
c010636e:	83 c4 30             	add    $0x30,%esp
c0106371:	89 45 d4             	mov    %eax,-0x2c(%ebp)
c0106374:	e9 fe 00 00 00       	jmp    c0106477 <_vsnprintf+0x642>
c0106379:	8b 45 e4             	mov    -0x1c(%ebp),%eax
c010637c:	25 00 02 00 00       	and    $0x200,%eax
c0106381:	85 c0                	test   %eax,%eax
c0106383:	74 41                	je     c01063c6 <_vsnprintf+0x591>
c0106385:	8b 4d d0             	mov    -0x30(%ebp),%ecx
c0106388:	bb 00 00 00 00       	mov    $0x0,%ebx
c010638d:	8b 55 18             	mov    0x18(%ebp),%edx
c0106390:	8d 42 08             	lea    0x8(%edx),%eax
c0106393:	89 45 18             	mov    %eax,0x18(%ebp)
c0106396:	8b 02                	mov    (%edx),%eax
c0106398:	8b 52 04             	mov    0x4(%edx),%edx
c010639b:	ff 75 e4             	push   -0x1c(%ebp)
c010639e:	ff 75 e0             	push   -0x20(%ebp)
c01063a1:	ff 75 dc             	push   -0x24(%ebp)
c01063a4:	53                   	push   %ebx
c01063a5:	51                   	push   %ecx
c01063a6:	6a 00                	push   $0x0
c01063a8:	52                   	push   %edx
c01063a9:	50                   	push   %eax
c01063aa:	ff 75 10             	push   0x10(%ebp)
c01063ad:	ff 75 d4             	push   -0x2c(%ebp)
c01063b0:	ff 75 0c             	push   0xc(%ebp)
c01063b3:	ff 75 08             	push   0x8(%ebp)
c01063b6:	e8 8e f1 ff ff       	call   c0105549 <_ntoa_long_long>
c01063bb:	83 c4 30             	add    $0x30,%esp
c01063be:	89 45 d4             	mov    %eax,-0x2c(%ebp)
c01063c1:	e9 b1 00 00 00       	jmp    c0106477 <_vsnprintf+0x642>
c01063c6:	8b 45 e4             	mov    -0x1c(%ebp),%eax
c01063c9:	25 00 01 00 00       	and    $0x100,%eax
c01063ce:	85 c0                	test   %eax,%eax
c01063d0:	74 36                	je     c0106408 <_vsnprintf+0x5d3>
c01063d2:	8b 45 18             	mov    0x18(%ebp),%eax
c01063d5:	8d 50 04             	lea    0x4(%eax),%edx
c01063d8:	89 55 18             	mov    %edx,0x18(%ebp)
c01063db:	8b 00                	mov    (%eax),%eax
c01063dd:	83 ec 08             	sub    $0x8,%esp
c01063e0:	ff 75 e4             	push   -0x1c(%ebp)
c01063e3:	ff 75 e0             	push   -0x20(%ebp)
c01063e6:	ff 75 dc             	push   -0x24(%ebp)
c01063e9:	ff 75 d0             	push   -0x30(%ebp)
c01063ec:	6a 00                	push   $0x0
c01063ee:	50                   	push   %eax
c01063ef:	ff 75 10             	push   0x10(%ebp)
c01063f2:	ff 75 d4             	push   -0x2c(%ebp)
c01063f5:	ff 75 0c             	push   0xc(%ebp)
c01063f8:	ff 75 08             	push   0x8(%ebp)
c01063fb:	e8 80 f0 ff ff       	call   c0105480 <_ntoa_long>
c0106400:	83 c4 30             	add    $0x30,%esp
c0106403:	89 45 d4             	mov    %eax,-0x2c(%ebp)
c0106406:	eb 6f                	jmp    c0106477 <_vsnprintf+0x642>
c0106408:	8b 45 e4             	mov    -0x1c(%ebp),%eax
c010640b:	83 e0 40             	and    $0x40,%eax
c010640e:	85 c0                	test   %eax,%eax
c0106410:	74 10                	je     c0106422 <_vsnprintf+0x5ed>
c0106412:	8b 45 18             	mov    0x18(%ebp),%eax
c0106415:	8d 50 04             	lea    0x4(%eax),%edx
c0106418:	89 55 18             	mov    %edx,0x18(%ebp)
c010641b:	8b 00                	mov    (%eax),%eax
c010641d:	0f b6 c0             	movzbl %al,%eax
c0106420:	eb 27                	jmp    c0106449 <_vsnprintf+0x614>
c0106422:	8b 45 e4             	mov    -0x1c(%ebp),%eax
c0106425:	25 80 00 00 00       	and    $0x80,%eax
c010642a:	85 c0                	test   %eax,%eax
c010642c:	74 10                	je     c010643e <_vsnprintf+0x609>
c010642e:	8b 45 18             	mov    0x18(%ebp),%eax
c0106431:	8d 50 04             	lea    0x4(%eax),%edx
c0106434:	89 55 18             	mov    %edx,0x18(%ebp)
c0106437:	8b 00                	mov    (%eax),%eax
c0106439:	0f b7 c0             	movzwl %ax,%eax
c010643c:	eb 0b                	jmp    c0106449 <_vsnprintf+0x614>
c010643e:	8b 45 18             	mov    0x18(%ebp),%eax
c0106441:	8d 50 04             	lea    0x4(%eax),%edx
c0106444:	89 55 18             	mov    %edx,0x18(%ebp)
c0106447:	8b 00                	mov    (%eax),%eax
c0106449:	89 45 b4             	mov    %eax,-0x4c(%ebp)
c010644c:	83 ec 08             	sub    $0x8,%esp
c010644f:	ff 75 e4             	push   -0x1c(%ebp)
c0106452:	ff 75 e0             	push   -0x20(%ebp)
c0106455:	ff 75 dc             	push   -0x24(%ebp)
c0106458:	ff 75 d0             	push   -0x30(%ebp)
c010645b:	6a 00                	push   $0x0
c010645d:	ff 75 b4             	push   -0x4c(%ebp)
c0106460:	ff 75 10             	push   0x10(%ebp)
c0106463:	ff 75 d4             	push   -0x2c(%ebp)
c0106466:	ff 75 0c             	push   0xc(%ebp)
c0106469:	ff 75 08             	push   0x8(%ebp)
c010646c:	e8 0f f0 ff ff       	call   c0105480 <_ntoa_long>
c0106471:	83 c4 30             	add    $0x30,%esp
c0106474:	89 45 d4             	mov    %eax,-0x2c(%ebp)
c0106477:	8b 45 14             	mov    0x14(%ebp),%eax
c010647a:	83 c0 01             	add    $0x1,%eax
c010647d:	89 45 14             	mov    %eax,0x14(%ebp)
c0106480:	e9 56 03 00 00       	jmp    c01067db <_vsnprintf+0x9a6>
c0106485:	8b 45 14             	mov    0x14(%ebp),%eax
c0106488:	0f b6 00             	movzbl (%eax),%eax
c010648b:	3c 46                	cmp    $0x46,%al
c010648d:	75 04                	jne    c0106493 <_vsnprintf+0x65e>
c010648f:	83 4d e4 20          	orl    $0x20,-0x1c(%ebp)
c0106493:	8b 45 18             	mov    0x18(%ebp),%eax
c0106496:	8d 50 08             	lea    0x8(%eax),%edx
c0106499:	89 55 18             	mov    %edx,0x18(%ebp)
c010649c:	dd 00                	fldl   (%eax)
c010649e:	83 ec 0c             	sub    $0xc,%esp
c01064a1:	ff 75 e4             	push   -0x1c(%ebp)
c01064a4:	ff 75 e0             	push   -0x20(%ebp)
c01064a7:	ff 75 dc             	push   -0x24(%ebp)
c01064aa:	8d 64 24 f8          	lea    -0x8(%esp),%esp
c01064ae:	dd 1c 24             	fstpl  (%esp)
c01064b1:	ff 75 10             	push   0x10(%ebp)
c01064b4:	ff 75 d4             	push   -0x2c(%ebp)
c01064b7:	ff 75 0c             	push   0xc(%ebp)
c01064ba:	ff 75 08             	push   0x8(%ebp)
c01064bd:	e8 9a f1 ff ff       	call   c010565c <_ftoa>
c01064c2:	83 c4 30             	add    $0x30,%esp
c01064c5:	89 45 d4             	mov    %eax,-0x2c(%ebp)
c01064c8:	8b 45 14             	mov    0x14(%ebp),%eax
c01064cb:	83 c0 01             	add    $0x1,%eax
c01064ce:	89 45 14             	mov    %eax,0x14(%ebp)
c01064d1:	e9 05 03 00 00       	jmp    c01067db <_vsnprintf+0x9a6>
c01064d6:	8b 45 14             	mov    0x14(%ebp),%eax
c01064d9:	0f b6 00             	movzbl (%eax),%eax
c01064dc:	3c 67                	cmp    $0x67,%al
c01064de:	74 0a                	je     c01064ea <_vsnprintf+0x6b5>
c01064e0:	8b 45 14             	mov    0x14(%ebp),%eax
c01064e3:	0f b6 00             	movzbl (%eax),%eax
c01064e6:	3c 47                	cmp    $0x47,%al
c01064e8:	75 07                	jne    c01064f1 <_vsnprintf+0x6bc>
c01064ea:	81 4d e4 00 08 00 00 	orl    $0x800,-0x1c(%ebp)
c01064f1:	8b 45 14             	mov    0x14(%ebp),%eax
c01064f4:	0f b6 00             	movzbl (%eax),%eax
c01064f7:	3c 45                	cmp    $0x45,%al
c01064f9:	74 0a                	je     c0106505 <_vsnprintf+0x6d0>
c01064fb:	8b 45 14             	mov    0x14(%ebp),%eax
c01064fe:	0f b6 00             	movzbl (%eax),%eax
c0106501:	3c 47                	cmp    $0x47,%al
c0106503:	75 04                	jne    c0106509 <_vsnprintf+0x6d4>
c0106505:	83 4d e4 20          	orl    $0x20,-0x1c(%ebp)
c0106509:	8b 45 18             	mov    0x18(%ebp),%eax
c010650c:	8d 50 08             	lea    0x8(%eax),%edx
c010650f:	89 55 18             	mov    %edx,0x18(%ebp)
c0106512:	dd 00                	fldl   (%eax)
c0106514:	83 ec 0c             	sub    $0xc,%esp
c0106517:	ff 75 e4             	push   -0x1c(%ebp)
c010651a:	ff 75 e0             	push   -0x20(%ebp)
c010651d:	ff 75 dc             	push   -0x24(%ebp)
c0106520:	8d 64 24 f8          	lea    -0x8(%esp),%esp
c0106524:	dd 1c 24             	fstpl  (%esp)
c0106527:	ff 75 10             	push   0x10(%ebp)
c010652a:	ff 75 d4             	push   -0x2c(%ebp)
c010652d:	ff 75 0c             	push   0xc(%ebp)
c0106530:	ff 75 08             	push   0x8(%ebp)
c0106533:	e8 64 f5 ff ff       	call   c0105a9c <_etoa>
c0106538:	83 c4 30             	add    $0x30,%esp
c010653b:	89 45 d4             	mov    %eax,-0x2c(%ebp)
c010653e:	8b 45 14             	mov    0x14(%ebp),%eax
c0106541:	83 c0 01             	add    $0x1,%eax
c0106544:	89 45 14             	mov    %eax,0x14(%ebp)
c0106547:	e9 8f 02 00 00       	jmp    c01067db <_vsnprintf+0x9a6>
c010654c:	c7 45 cc 01 00 00 00 	movl   $0x1,-0x34(%ebp)
c0106553:	8b 45 e4             	mov    -0x1c(%ebp),%eax
c0106556:	83 e0 02             	and    $0x2,%eax
c0106559:	85 c0                	test   %eax,%eax
c010655b:	75 2a                	jne    c0106587 <_vsnprintf+0x752>
c010655d:	eb 1a                	jmp    c0106579 <_vsnprintf+0x744>
c010655f:	8b 45 d4             	mov    -0x2c(%ebp),%eax
c0106562:	8d 50 01             	lea    0x1(%eax),%edx
c0106565:	89 55 d4             	mov    %edx,-0x2c(%ebp)
c0106568:	ff 75 10             	push   0x10(%ebp)
c010656b:	50                   	push   %eax
c010656c:	ff 75 0c             	push   0xc(%ebp)
c010656f:	6a 20                	push   $0x20
c0106571:	8b 45 08             	mov    0x8(%ebp),%eax
c0106574:	ff d0                	call   *%eax
c0106576:	83 c4 10             	add    $0x10,%esp
c0106579:	8b 45 cc             	mov    -0x34(%ebp),%eax
c010657c:	8d 50 01             	lea    0x1(%eax),%edx
c010657f:	89 55 cc             	mov    %edx,-0x34(%ebp)
c0106582:	3b 45 e0             	cmp    -0x20(%ebp),%eax
c0106585:	72 d8                	jb     c010655f <_vsnprintf+0x72a>
c0106587:	8b 55 d4             	mov    -0x2c(%ebp),%edx
c010658a:	8d 42 01             	lea    0x1(%edx),%eax
c010658d:	89 45 d4             	mov    %eax,-0x2c(%ebp)
c0106590:	8b 45 18             	mov    0x18(%ebp),%eax
c0106593:	8d 48 04             	lea    0x4(%eax),%ecx
c0106596:	89 4d 18             	mov    %ecx,0x18(%ebp)
c0106599:	8b 00                	mov    (%eax),%eax
c010659b:	0f be c0             	movsbl %al,%eax
c010659e:	ff 75 10             	push   0x10(%ebp)
c01065a1:	52                   	push   %edx
c01065a2:	ff 75 0c             	push   0xc(%ebp)
c01065a5:	50                   	push   %eax
c01065a6:	8b 45 08             	mov    0x8(%ebp),%eax
c01065a9:	ff d0                	call   *%eax
c01065ab:	83 c4 10             	add    $0x10,%esp
c01065ae:	8b 45 e4             	mov    -0x1c(%ebp),%eax
c01065b1:	83 e0 02             	and    $0x2,%eax
c01065b4:	85 c0                	test   %eax,%eax
c01065b6:	74 2a                	je     c01065e2 <_vsnprintf+0x7ad>
c01065b8:	eb 1a                	jmp    c01065d4 <_vsnprintf+0x79f>
c01065ba:	8b 45 d4             	mov    -0x2c(%ebp),%eax
c01065bd:	8d 50 01             	lea    0x1(%eax),%edx
c01065c0:	89 55 d4             	mov    %edx,-0x2c(%ebp)
c01065c3:	ff 75 10             	push   0x10(%ebp)
c01065c6:	50                   	push   %eax
c01065c7:	ff 75 0c             	push   0xc(%ebp)
c01065ca:	6a 20                	push   $0x20
c01065cc:	8b 45 08             	mov    0x8(%ebp),%eax
c01065cf:	ff d0                	call   *%eax
c01065d1:	83 c4 10             	add    $0x10,%esp
c01065d4:	8b 45 cc             	mov    -0x34(%ebp),%eax
c01065d7:	8d 50 01             	lea    0x1(%eax),%edx
c01065da:	89 55 cc             	mov    %edx,-0x34(%ebp)
c01065dd:	3b 45 e0             	cmp    -0x20(%ebp),%eax
c01065e0:	72 d8                	jb     c01065ba <_vsnprintf+0x785>
c01065e2:	8b 45 14             	mov    0x14(%ebp),%eax
c01065e5:	83 c0 01             	add    $0x1,%eax
c01065e8:	89 45 14             	mov    %eax,0x14(%ebp)
c01065eb:	e9 eb 01 00 00       	jmp    c01067db <_vsnprintf+0x9a6>
c01065f0:	8b 45 18             	mov    0x18(%ebp),%eax
c01065f3:	8d 50 04             	lea    0x4(%eax),%edx
c01065f6:	89 55 18             	mov    %edx,0x18(%ebp)
c01065f9:	8b 00                	mov    (%eax),%eax
c01065fb:	89 45 c8             	mov    %eax,-0x38(%ebp)
c01065fe:	83 7d dc 00          	cmpl   $0x0,-0x24(%ebp)
c0106602:	74 05                	je     c0106609 <_vsnprintf+0x7d4>
c0106604:	8b 45 dc             	mov    -0x24(%ebp),%eax
c0106607:	eb 05                	jmp    c010660e <_vsnprintf+0x7d9>
c0106609:	b8 ff ff ff ff       	mov    $0xffffffff,%eax
c010660e:	83 ec 08             	sub    $0x8,%esp
c0106611:	50                   	push   %eax
c0106612:	ff 75 c8             	push   -0x38(%ebp)
c0106615:	e8 33 eb ff ff       	call   c010514d <_strnlen_s>
c010661a:	83 c4 10             	add    $0x10,%esp
c010661d:	89 45 c4             	mov    %eax,-0x3c(%ebp)
c0106620:	8b 45 e4             	mov    -0x1c(%ebp),%eax
c0106623:	25 00 04 00 00       	and    $0x400,%eax
c0106628:	85 c0                	test   %eax,%eax
c010662a:	74 0e                	je     c010663a <_vsnprintf+0x805>
c010662c:	8b 55 c4             	mov    -0x3c(%ebp),%edx
c010662f:	8b 45 dc             	mov    -0x24(%ebp),%eax
c0106632:	39 c2                	cmp    %eax,%edx
c0106634:	0f 46 c2             	cmovbe %edx,%eax
c0106637:	89 45 c4             	mov    %eax,-0x3c(%ebp)
c010663a:	8b 45 e4             	mov    -0x1c(%ebp),%eax
c010663d:	83 e0 02             	and    $0x2,%eax
c0106640:	85 c0                	test   %eax,%eax
c0106642:	75 54                	jne    c0106698 <_vsnprintf+0x863>
c0106644:	eb 1a                	jmp    c0106660 <_vsnprintf+0x82b>
c0106646:	8b 45 d4             	mov    -0x2c(%ebp),%eax
c0106649:	8d 50 01             	lea    0x1(%eax),%edx
c010664c:	89 55 d4             	mov    %edx,-0x2c(%ebp)
c010664f:	ff 75 10             	push   0x10(%ebp)
c0106652:	50                   	push   %eax
c0106653:	ff 75 0c             	push   0xc(%ebp)
c0106656:	6a 20                	push   $0x20
c0106658:	8b 45 08             	mov    0x8(%ebp),%eax
c010665b:	ff d0                	call   *%eax
c010665d:	83 c4 10             	add    $0x10,%esp
c0106660:	8b 45 c4             	mov    -0x3c(%ebp),%eax
c0106663:	8d 50 01             	lea    0x1(%eax),%edx
c0106666:	89 55 c4             	mov    %edx,-0x3c(%ebp)
c0106669:	3b 45 e0             	cmp    -0x20(%ebp),%eax
c010666c:	72 d8                	jb     c0106646 <_vsnprintf+0x811>
c010666e:	eb 28                	jmp    c0106698 <_vsnprintf+0x863>
c0106670:	8b 55 d4             	mov    -0x2c(%ebp),%edx
c0106673:	8d 42 01             	lea    0x1(%edx),%eax
c0106676:	89 45 d4             	mov    %eax,-0x2c(%ebp)
c0106679:	8b 45 c8             	mov    -0x38(%ebp),%eax
c010667c:	8d 48 01             	lea    0x1(%eax),%ecx
c010667f:	89 4d c8             	mov    %ecx,-0x38(%ebp)
c0106682:	0f b6 00             	movzbl (%eax),%eax
c0106685:	0f be c0             	movsbl %al,%eax
c0106688:	ff 75 10             	push   0x10(%ebp)
c010668b:	52                   	push   %edx
c010668c:	ff 75 0c             	push   0xc(%ebp)
c010668f:	50                   	push   %eax
c0106690:	8b 45 08             	mov    0x8(%ebp),%eax
c0106693:	ff d0                	call   *%eax
c0106695:	83 c4 10             	add    $0x10,%esp
c0106698:	8b 45 c8             	mov    -0x38(%ebp),%eax
c010669b:	0f b6 00             	movzbl (%eax),%eax
c010669e:	84 c0                	test   %al,%al
c01066a0:	74 19                	je     c01066bb <_vsnprintf+0x886>
c01066a2:	8b 45 e4             	mov    -0x1c(%ebp),%eax
c01066a5:	25 00 04 00 00       	and    $0x400,%eax
c01066aa:	85 c0                	test   %eax,%eax
c01066ac:	74 c2                	je     c0106670 <_vsnprintf+0x83b>
c01066ae:	8b 45 dc             	mov    -0x24(%ebp),%eax
c01066b1:	8d 50 ff             	lea    -0x1(%eax),%edx
c01066b4:	89 55 dc             	mov    %edx,-0x24(%ebp)
c01066b7:	85 c0                	test   %eax,%eax
c01066b9:	75 b5                	jne    c0106670 <_vsnprintf+0x83b>
c01066bb:	8b 45 e4             	mov    -0x1c(%ebp),%eax
c01066be:	83 e0 02             	and    $0x2,%eax
c01066c1:	85 c0                	test   %eax,%eax
c01066c3:	74 2a                	je     c01066ef <_vsnprintf+0x8ba>
c01066c5:	eb 1a                	jmp    c01066e1 <_vsnprintf+0x8ac>
c01066c7:	8b 45 d4             	mov    -0x2c(%ebp),%eax
c01066ca:	8d 50 01             	lea    0x1(%eax),%edx
c01066cd:	89 55 d4             	mov    %edx,-0x2c(%ebp)
c01066d0:	ff 75 10             	push   0x10(%ebp)
c01066d3:	50                   	push   %eax
c01066d4:	ff 75 0c             	push   0xc(%ebp)
c01066d7:	6a 20                	push   $0x20
c01066d9:	8b 45 08             	mov    0x8(%ebp),%eax
c01066dc:	ff d0                	call   *%eax
c01066de:	83 c4 10             	add    $0x10,%esp
c01066e1:	8b 45 c4             	mov    -0x3c(%ebp),%eax
c01066e4:	8d 50 01             	lea    0x1(%eax),%edx
c01066e7:	89 55 c4             	mov    %edx,-0x3c(%ebp)
c01066ea:	3b 45 e0             	cmp    -0x20(%ebp),%eax
c01066ed:	72 d8                	jb     c01066c7 <_vsnprintf+0x892>
c01066ef:	8b 45 14             	mov    0x14(%ebp),%eax
c01066f2:	83 c0 01             	add    $0x1,%eax
c01066f5:	89 45 14             	mov    %eax,0x14(%ebp)
c01066f8:	e9 de 00 00 00       	jmp    c01067db <_vsnprintf+0x9a6>
c01066fd:	c7 45 e0 08 00 00 00 	movl   $0x8,-0x20(%ebp)
c0106704:	83 4d e4 21          	orl    $0x21,-0x1c(%ebp)
c0106708:	c6 45 bb 00          	movb   $0x0,-0x45(%ebp)
c010670c:	80 7d bb 00          	cmpb   $0x0,-0x45(%ebp)
c0106710:	74 3a                	je     c010674c <_vsnprintf+0x917>
c0106712:	8b 45 18             	mov    0x18(%ebp),%eax
c0106715:	8d 50 04             	lea    0x4(%eax),%edx
c0106718:	89 55 18             	mov    %edx,0x18(%ebp)
c010671b:	8b 00                	mov    (%eax),%eax
c010671d:	ba 00 00 00 00       	mov    $0x0,%edx
c0106722:	ff 75 e4             	push   -0x1c(%ebp)
c0106725:	ff 75 e0             	push   -0x20(%ebp)
c0106728:	ff 75 dc             	push   -0x24(%ebp)
c010672b:	6a 00                	push   $0x0
c010672d:	6a 10                	push   $0x10
c010672f:	6a 00                	push   $0x0
c0106731:	52                   	push   %edx
c0106732:	50                   	push   %eax
c0106733:	ff 75 10             	push   0x10(%ebp)
c0106736:	ff 75 d4             	push   -0x2c(%ebp)
c0106739:	ff 75 0c             	push   0xc(%ebp)
c010673c:	ff 75 08             	push   0x8(%ebp)
c010673f:	e8 05 ee ff ff       	call   c0105549 <_ntoa_long_long>
c0106744:	83 c4 30             	add    $0x30,%esp
c0106747:	89 45 d4             	mov    %eax,-0x2c(%ebp)
c010674a:	eb 33                	jmp    c010677f <_vsnprintf+0x94a>
c010674c:	8b 45 18             	mov    0x18(%ebp),%eax
c010674f:	8d 50 04             	lea    0x4(%eax),%edx
c0106752:	89 55 18             	mov    %edx,0x18(%ebp)
c0106755:	8b 00                	mov    (%eax),%eax
c0106757:	83 ec 08             	sub    $0x8,%esp
c010675a:	ff 75 e4             	push   -0x1c(%ebp)
c010675d:	ff 75 e0             	push   -0x20(%ebp)
c0106760:	ff 75 dc             	push   -0x24(%ebp)
c0106763:	6a 10                	push   $0x10
c0106765:	6a 00                	push   $0x0
c0106767:	50                   	push   %eax
c0106768:	ff 75 10             	push   0x10(%ebp)
c010676b:	ff 75 d4             	push   -0x2c(%ebp)
c010676e:	ff 75 0c             	push   0xc(%ebp)
c0106771:	ff 75 08             	push   0x8(%ebp)
c0106774:	e8 07 ed ff ff       	call   c0105480 <_ntoa_long>
c0106779:	83 c4 30             	add    $0x30,%esp
c010677c:	89 45 d4             	mov    %eax,-0x2c(%ebp)
c010677f:	8b 45 14             	mov    0x14(%ebp),%eax
c0106782:	83 c0 01             	add    $0x1,%eax
c0106785:	89 45 14             	mov    %eax,0x14(%ebp)
c0106788:	eb 51                	jmp    c01067db <_vsnprintf+0x9a6>
c010678a:	8b 45 d4             	mov    -0x2c(%ebp),%eax
c010678d:	8d 50 01             	lea    0x1(%eax),%edx
c0106790:	89 55 d4             	mov    %edx,-0x2c(%ebp)
c0106793:	ff 75 10             	push   0x10(%ebp)
c0106796:	50                   	push   %eax
c0106797:	ff 75 0c             	push   0xc(%ebp)
c010679a:	6a 25                	push   $0x25
c010679c:	8b 45 08             	mov    0x8(%ebp),%eax
c010679f:	ff d0                	call   *%eax
c01067a1:	83 c4 10             	add    $0x10,%esp
c01067a4:	8b 45 14             	mov    0x14(%ebp),%eax
c01067a7:	83 c0 01             	add    $0x1,%eax
c01067aa:	89 45 14             	mov    %eax,0x14(%ebp)
c01067ad:	eb 2c                	jmp    c01067db <_vsnprintf+0x9a6>
c01067af:	8b 45 d4             	mov    -0x2c(%ebp),%eax
c01067b2:	8d 50 01             	lea    0x1(%eax),%edx
c01067b5:	89 55 d4             	mov    %edx,-0x2c(%ebp)
c01067b8:	8b 55 14             	mov    0x14(%ebp),%edx
c01067bb:	0f b6 12             	movzbl (%edx),%edx
c01067be:	0f be d2             	movsbl %dl,%edx
c01067c1:	ff 75 10             	push   0x10(%ebp)
c01067c4:	50                   	push   %eax
c01067c5:	ff 75 0c             	push   0xc(%ebp)
c01067c8:	52                   	push   %edx
c01067c9:	8b 45 08             	mov    0x8(%ebp),%eax
c01067cc:	ff d0                	call   *%eax
c01067ce:	83 c4 10             	add    $0x10,%esp
c01067d1:	8b 45 14             	mov    0x14(%ebp),%eax
c01067d4:	83 c0 01             	add    $0x1,%eax
c01067d7:	89 45 14             	mov    %eax,0x14(%ebp)
c01067da:	90                   	nop
c01067db:	8b 45 14             	mov    0x14(%ebp),%eax
c01067de:	0f b6 00             	movzbl (%eax),%eax
c01067e1:	84 c0                	test   %al,%al
c01067e3:	0f 85 72 f6 ff ff    	jne    c0105e5b <_vsnprintf+0x26>
c01067e9:	8b 45 d4             	mov    -0x2c(%ebp),%eax
c01067ec:	3b 45 10             	cmp    0x10(%ebp),%eax
c01067ef:	72 08                	jb     c01067f9 <_vsnprintf+0x9c4>
c01067f1:	8b 45 10             	mov    0x10(%ebp),%eax
c01067f4:	83 e8 01             	sub    $0x1,%eax
c01067f7:	eb 03                	jmp    c01067fc <_vsnprintf+0x9c7>
c01067f9:	8b 45 d4             	mov    -0x2c(%ebp),%eax
c01067fc:	ff 75 10             	push   0x10(%ebp)
c01067ff:	50                   	push   %eax
c0106800:	ff 75 0c             	push   0xc(%ebp)
c0106803:	6a 00                	push   $0x0
c0106805:	8b 45 08             	mov    0x8(%ebp),%eax
c0106808:	ff d0                	call   *%eax
c010680a:	83 c4 10             	add    $0x10,%esp
c010680d:	8b 45 d4             	mov    -0x2c(%ebp),%eax
c0106810:	8d 65 f4             	lea    -0xc(%ebp),%esp
c0106813:	5b                   	pop    %ebx
c0106814:	5e                   	pop    %esi
c0106815:	5f                   	pop    %edi
c0106816:	5d                   	pop    %ebp
c0106817:	c3                   	ret

c0106818 <printf_>:
c0106818:	55                   	push   %ebp
c0106819:	89 e5                	mov    %esp,%ebp
c010681b:	83 ec 18             	sub    $0x18,%esp
c010681e:	8d 45 0c             	lea    0xc(%ebp),%eax
c0106821:	89 45 f0             	mov    %eax,-0x10(%ebp)
c0106824:	8b 45 f0             	mov    -0x10(%ebp),%eax
c0106827:	83 ec 0c             	sub    $0xc,%esp
c010682a:	50                   	push   %eax
c010682b:	ff 75 08             	push   0x8(%ebp)
c010682e:	6a ff                	push   $0xffffffff
c0106830:	8d 45 ef             	lea    -0x11(%ebp),%eax
c0106833:	50                   	push   %eax
c0106834:	68 fa 50 10 c0       	push   $0xc01050fa
c0106839:	e8 f7 f5 ff ff       	call   c0105e35 <_vsnprintf>
c010683e:	83 c4 20             	add    $0x20,%esp
c0106841:	89 45 f4             	mov    %eax,-0xc(%ebp)
c0106844:	8b 45 f4             	mov    -0xc(%ebp),%eax
c0106847:	c9                   	leave
c0106848:	c3                   	ret

c0106849 <sprintf_>:
c0106849:	55                   	push   %ebp
c010684a:	89 e5                	mov    %esp,%ebp
c010684c:	83 ec 18             	sub    $0x18,%esp
c010684f:	8d 45 10             	lea    0x10(%ebp),%eax
c0106852:	89 45 f0             	mov    %eax,-0x10(%ebp)
c0106855:	8b 45 f0             	mov    -0x10(%ebp),%eax
c0106858:	83 ec 0c             	sub    $0xc,%esp
c010685b:	50                   	push   %eax
c010685c:	ff 75 0c             	push   0xc(%ebp)
c010685f:	6a ff                	push   $0xffffffff
c0106861:	ff 75 08             	push   0x8(%ebp)
c0106864:	68 c6 50 10 c0       	push   $0xc01050c6
c0106869:	e8 c7 f5 ff ff       	call   c0105e35 <_vsnprintf>
c010686e:	83 c4 20             	add    $0x20,%esp
c0106871:	89 45 f4             	mov    %eax,-0xc(%ebp)
c0106874:	8b 45 f4             	mov    -0xc(%ebp),%eax
c0106877:	c9                   	leave
c0106878:	c3                   	ret

c0106879 <snprintf_>:
c0106879:	55                   	push   %ebp
c010687a:	89 e5                	mov    %esp,%ebp
c010687c:	83 ec 18             	sub    $0x18,%esp
c010687f:	8d 45 14             	lea    0x14(%ebp),%eax
c0106882:	89 45 f0             	mov    %eax,-0x10(%ebp)
c0106885:	8b 45 f0             	mov    -0x10(%ebp),%eax
c0106888:	83 ec 0c             	sub    $0xc,%esp
c010688b:	50                   	push   %eax
c010688c:	ff 75 10             	push   0x10(%ebp)
c010688f:	ff 75 0c             	push   0xc(%ebp)
c0106892:	ff 75 08             	push   0x8(%ebp)
c0106895:	68 c6 50 10 c0       	push   $0xc01050c6
c010689a:	e8 96 f5 ff ff       	call   c0105e35 <_vsnprintf>
c010689f:	83 c4 20             	add    $0x20,%esp
c01068a2:	89 45 f4             	mov    %eax,-0xc(%ebp)
c01068a5:	8b 45 f4             	mov    -0xc(%ebp),%eax
c01068a8:	c9                   	leave
c01068a9:	c3                   	ret

c01068aa <vprintf_>:
c01068aa:	55                   	push   %ebp
c01068ab:	89 e5                	mov    %esp,%ebp
c01068ad:	83 ec 18             	sub    $0x18,%esp
c01068b0:	83 ec 0c             	sub    $0xc,%esp
c01068b3:	ff 75 0c             	push   0xc(%ebp)
c01068b6:	ff 75 08             	push   0x8(%ebp)
c01068b9:	6a ff                	push   $0xffffffff
c01068bb:	8d 45 f7             	lea    -0x9(%ebp),%eax
c01068be:	50                   	push   %eax
c01068bf:	68 fa 50 10 c0       	push   $0xc01050fa
c01068c4:	e8 6c f5 ff ff       	call   c0105e35 <_vsnprintf>
c01068c9:	83 c4 20             	add    $0x20,%esp
c01068cc:	c9                   	leave
c01068cd:	c3                   	ret

c01068ce <vsnprintf_>:
c01068ce:	55                   	push   %ebp
c01068cf:	89 e5                	mov    %esp,%ebp
c01068d1:	83 ec 08             	sub    $0x8,%esp
c01068d4:	83 ec 0c             	sub    $0xc,%esp
c01068d7:	ff 75 14             	push   0x14(%ebp)
c01068da:	ff 75 10             	push   0x10(%ebp)
c01068dd:	ff 75 0c             	push   0xc(%ebp)
c01068e0:	ff 75 08             	push   0x8(%ebp)
c01068e3:	68 c6 50 10 c0       	push   $0xc01050c6
c01068e8:	e8 48 f5 ff ff       	call   c0105e35 <_vsnprintf>
c01068ed:	83 c4 20             	add    $0x20,%esp
c01068f0:	c9                   	leave
c01068f1:	c3                   	ret

c01068f2 <fctprintf>:
c01068f2:	55                   	push   %ebp
c01068f3:	89 e5                	mov    %esp,%ebp
c01068f5:	83 ec 18             	sub    $0x18,%esp
c01068f8:	8d 45 14             	lea    0x14(%ebp),%eax
c01068fb:	89 45 f0             	mov    %eax,-0x10(%ebp)
c01068fe:	8b 45 08             	mov    0x8(%ebp),%eax
c0106901:	89 45 e8             	mov    %eax,-0x18(%ebp)
c0106904:	8b 45 0c             	mov    0xc(%ebp),%eax
c0106907:	89 45 ec             	mov    %eax,-0x14(%ebp)
c010690a:	8b 45 f0             	mov    -0x10(%ebp),%eax
c010690d:	83 ec 0c             	sub    $0xc,%esp
c0106910:	50                   	push   %eax
c0106911:	ff 75 10             	push   0x10(%ebp)
c0106914:	6a ff                	push   $0xffffffff
c0106916:	8d 45 e8             	lea    -0x18(%ebp),%eax
c0106919:	50                   	push   %eax
c010691a:	68 1f 51 10 c0       	push   $0xc010511f
c010691f:	e8 11 f5 ff ff       	call   c0105e35 <_vsnprintf>
c0106924:	83 c4 20             	add    $0x20,%esp
c0106927:	89 45 f4             	mov    %eax,-0xc(%ebp)
c010692a:	8b 45 f4             	mov    -0xc(%ebp),%eax
c010692d:	c9                   	leave
c010692e:	c3                   	ret

c010692f <memset>:
c010692f:	55                   	push   %ebp
c0106930:	89 e5                	mov    %esp,%ebp
c0106932:	83 ec 10             	sub    $0x10,%esp
c0106935:	8b 45 08             	mov    0x8(%ebp),%eax
c0106938:	89 45 fc             	mov    %eax,-0x4(%ebp)
c010693b:	eb 12                	jmp    c010694f <memset+0x20>
c010693d:	8b 45 0c             	mov    0xc(%ebp),%eax
c0106940:	89 c2                	mov    %eax,%edx
c0106942:	8b 45 fc             	mov    -0x4(%ebp),%eax
c0106945:	88 10                	mov    %dl,(%eax)
c0106947:	83 45 fc 01          	addl   $0x1,-0x4(%ebp)
c010694b:	83 6d 10 01          	subl   $0x1,0x10(%ebp)
c010694f:	83 7d 10 00          	cmpl   $0x0,0x10(%ebp)
c0106953:	75 e8                	jne    c010693d <memset+0xe>
c0106955:	8b 45 08             	mov    0x8(%ebp),%eax
c0106958:	c9                   	leave
c0106959:	c3                   	ret

c010695a <memcpy>:
c010695a:	55                   	push   %ebp
c010695b:	89 e5                	mov    %esp,%ebp
c010695d:	83 ec 10             	sub    $0x10,%esp
c0106960:	8b 45 08             	mov    0x8(%ebp),%eax
c0106963:	89 45 fc             	mov    %eax,-0x4(%ebp)
c0106966:	8b 45 0c             	mov    0xc(%ebp),%eax
c0106969:	89 45 f8             	mov    %eax,-0x8(%ebp)
c010696c:	83 7d fc 00          	cmpl   $0x0,-0x4(%ebp)
c0106970:	74 29                	je     c010699b <memcpy+0x41>
c0106972:	83 7d f8 00          	cmpl   $0x0,-0x8(%ebp)
c0106976:	74 23                	je     c010699b <memcpy+0x41>
c0106978:	eb 1b                	jmp    c0106995 <memcpy+0x3b>
c010697a:	8b 55 f8             	mov    -0x8(%ebp),%edx
c010697d:	8d 42 01             	lea    0x1(%edx),%eax
c0106980:	89 45 f8             	mov    %eax,-0x8(%ebp)
c0106983:	8b 45 fc             	mov    -0x4(%ebp),%eax
c0106986:	8d 48 01             	lea    0x1(%eax),%ecx
c0106989:	89 4d fc             	mov    %ecx,-0x4(%ebp)
c010698c:	0f b6 12             	movzbl (%edx),%edx
c010698f:	88 10                	mov    %dl,(%eax)
c0106991:	83 6d 10 01          	subl   $0x1,0x10(%ebp)
c0106995:	83 7d 10 00          	cmpl   $0x0,0x10(%ebp)
c0106999:	75 df                	jne    c010697a <memcpy+0x20>
c010699b:	8b 45 08             	mov    0x8(%ebp),%eax
c010699e:	c9                   	leave
c010699f:	c3                   	ret

c01069a0 <memmove>:
c01069a0:	55                   	push   %ebp
c01069a1:	89 e5                	mov    %esp,%ebp
c01069a3:	83 ec 18             	sub    $0x18,%esp
c01069a6:	8b 45 0c             	mov    0xc(%ebp),%eax
c01069a9:	89 45 ec             	mov    %eax,-0x14(%ebp)
c01069ac:	8b 45 08             	mov    0x8(%ebp),%eax
c01069af:	89 45 e8             	mov    %eax,-0x18(%ebp)
c01069b2:	8b 45 ec             	mov    -0x14(%ebp),%eax
c01069b5:	3b 45 e8             	cmp    -0x18(%ebp),%eax
c01069b8:	74 06                	je     c01069c0 <memmove+0x20>
c01069ba:	83 7d 10 00          	cmpl   $0x0,0x10(%ebp)
c01069be:	75 08                	jne    c01069c8 <memmove+0x28>
c01069c0:	8b 45 08             	mov    0x8(%ebp),%eax
c01069c3:	e9 a3 00 00 00       	jmp    c0106a6b <memmove+0xcb>
c01069c8:	8b 45 e8             	mov    -0x18(%ebp),%eax
c01069cb:	39 45 ec             	cmp    %eax,-0x14(%ebp)
c01069ce:	73 3e                	jae    c0106a0e <memmove+0x6e>
c01069d0:	8b 45 e8             	mov    -0x18(%ebp),%eax
c01069d3:	2b 45 ec             	sub    -0x14(%ebp),%eax
c01069d6:	89 c2                	mov    %eax,%edx
c01069d8:	8b 45 10             	mov    0x10(%ebp),%eax
c01069db:	39 c2                	cmp    %eax,%edx
c01069dd:	7d 2f                	jge    c0106a0e <memmove+0x6e>
c01069df:	8b 45 10             	mov    0x10(%ebp),%eax
c01069e2:	83 e8 01             	sub    $0x1,%eax
c01069e5:	89 45 f4             	mov    %eax,-0xc(%ebp)
c01069e8:	eb 19                	jmp    c0106a03 <memmove+0x63>
c01069ea:	8b 55 f4             	mov    -0xc(%ebp),%edx
c01069ed:	8b 45 ec             	mov    -0x14(%ebp),%eax
c01069f0:	01 d0                	add    %edx,%eax
c01069f2:	8b 4d f4             	mov    -0xc(%ebp),%ecx
c01069f5:	8b 55 e8             	mov    -0x18(%ebp),%edx
c01069f8:	01 ca                	add    %ecx,%edx
c01069fa:	0f b6 00             	movzbl (%eax),%eax
c01069fd:	88 02                	mov    %al,(%edx)
c01069ff:	83 6d f4 01          	subl   $0x1,-0xc(%ebp)
c0106a03:	83 7d f4 00          	cmpl   $0x0,-0xc(%ebp)
c0106a07:	79 e1                	jns    c01069ea <memmove+0x4a>
c0106a09:	8b 45 08             	mov    0x8(%ebp),%eax
c0106a0c:	eb 5d                	jmp    c0106a6b <memmove+0xcb>
c0106a0e:	8b 45 ec             	mov    -0x14(%ebp),%eax
c0106a11:	39 45 e8             	cmp    %eax,-0x18(%ebp)
c0106a14:	73 3e                	jae    c0106a54 <memmove+0xb4>
c0106a16:	8b 45 ec             	mov    -0x14(%ebp),%eax
c0106a19:	2b 45 e8             	sub    -0x18(%ebp),%eax
c0106a1c:	89 c2                	mov    %eax,%edx
c0106a1e:	8b 45 10             	mov    0x10(%ebp),%eax
c0106a21:	39 c2                	cmp    %eax,%edx
c0106a23:	7d 2f                	jge    c0106a54 <memmove+0xb4>
c0106a25:	c7 45 f0 00 00 00 00 	movl   $0x0,-0x10(%ebp)
c0106a2c:	eb 19                	jmp    c0106a47 <memmove+0xa7>
c0106a2e:	8b 55 ec             	mov    -0x14(%ebp),%edx
c0106a31:	8b 45 f0             	mov    -0x10(%ebp),%eax
c0106a34:	01 d0                	add    %edx,%eax
c0106a36:	8b 4d e8             	mov    -0x18(%ebp),%ecx
c0106a39:	8b 55 f0             	mov    -0x10(%ebp),%edx
c0106a3c:	01 ca                	add    %ecx,%edx
c0106a3e:	0f b6 00             	movzbl (%eax),%eax
c0106a41:	88 02                	mov    %al,(%edx)
c0106a43:	83 45 f0 01          	addl   $0x1,-0x10(%ebp)
c0106a47:	8b 45 f0             	mov    -0x10(%ebp),%eax
c0106a4a:	3b 45 10             	cmp    0x10(%ebp),%eax
c0106a4d:	72 df                	jb     c0106a2e <memmove+0x8e>
c0106a4f:	8b 45 08             	mov    0x8(%ebp),%eax
c0106a52:	eb 17                	jmp    c0106a6b <memmove+0xcb>
c0106a54:	83 ec 04             	sub    $0x4,%esp
c0106a57:	ff 75 10             	push   0x10(%ebp)
c0106a5a:	ff 75 0c             	push   0xc(%ebp)
c0106a5d:	ff 75 08             	push   0x8(%ebp)
c0106a60:	e8 f5 fe ff ff       	call   c010695a <memcpy>
c0106a65:	83 c4 10             	add    $0x10,%esp
c0106a68:	8b 45 08             	mov    0x8(%ebp),%eax
c0106a6b:	c9                   	leave
c0106a6c:	c3                   	ret

c0106a6d <strcpy>:
c0106a6d:	55                   	push   %ebp
c0106a6e:	89 e5                	mov    %esp,%ebp
c0106a70:	83 ec 10             	sub    $0x10,%esp
c0106a73:	83 7d 08 00          	cmpl   $0x0,0x8(%ebp)
c0106a77:	75 07                	jne    c0106a80 <strcpy+0x13>
c0106a79:	b8 00 00 00 00       	mov    $0x0,%eax
c0106a7e:	eb 2e                	jmp    c0106aae <strcpy+0x41>
c0106a80:	8b 45 08             	mov    0x8(%ebp),%eax
c0106a83:	89 45 fc             	mov    %eax,-0x4(%ebp)
c0106a86:	eb 13                	jmp    c0106a9b <strcpy+0x2e>
c0106a88:	8b 45 0c             	mov    0xc(%ebp),%eax
c0106a8b:	0f b6 10             	movzbl (%eax),%edx
c0106a8e:	8b 45 08             	mov    0x8(%ebp),%eax
c0106a91:	88 10                	mov    %dl,(%eax)
c0106a93:	83 45 08 01          	addl   $0x1,0x8(%ebp)
c0106a97:	83 45 0c 01          	addl   $0x1,0xc(%ebp)
c0106a9b:	8b 45 0c             	mov    0xc(%ebp),%eax
c0106a9e:	0f b6 00             	movzbl (%eax),%eax
c0106aa1:	84 c0                	test   %al,%al
c0106aa3:	75 e3                	jne    c0106a88 <strcpy+0x1b>
c0106aa5:	8b 45 08             	mov    0x8(%ebp),%eax
c0106aa8:	c6 00 00             	movb   $0x0,(%eax)
c0106aab:	8b 45 fc             	mov    -0x4(%ebp),%eax
c0106aae:	c9                   	leave
c0106aaf:	c3                   	ret

c0106ab0 <strlen>:
c0106ab0:	55                   	push   %ebp
c0106ab1:	89 e5                	mov    %esp,%ebp
c0106ab3:	53                   	push   %ebx
c0106ab4:	8b 5d 08             	mov    0x8(%ebp),%ebx
c0106ab7:	eb 03                	jmp    c0106abc <strlen+0xc>
c0106ab9:	83 c3 01             	add    $0x1,%ebx
c0106abc:	0f b6 03             	movzbl (%ebx),%eax
c0106abf:	84 c0                	test   %al,%al
c0106ac1:	75 f6                	jne    c0106ab9 <strlen+0x9>
c0106ac3:	89 d8                	mov    %ebx,%eax
c0106ac5:	2b 45 08             	sub    0x8(%ebp),%eax
c0106ac8:	8b 5d fc             	mov    -0x4(%ebp),%ebx
c0106acb:	c9                   	leave
c0106acc:	c3                   	ret

c0106acd <is_delim>:
c0106acd:	55                   	push   %ebp
c0106ace:	89 e5                	mov    %esp,%ebp
c0106ad0:	83 ec 04             	sub    $0x4,%esp
c0106ad3:	8b 45 08             	mov    0x8(%ebp),%eax
c0106ad6:	88 45 fc             	mov    %al,-0x4(%ebp)
c0106ad9:	eb 16                	jmp    c0106af1 <is_delim+0x24>
c0106adb:	8b 45 0c             	mov    0xc(%ebp),%eax
c0106ade:	0f b6 00             	movzbl (%eax),%eax
c0106ae1:	38 45 fc             	cmp    %al,-0x4(%ebp)
c0106ae4:	75 07                	jne    c0106aed <is_delim+0x20>
c0106ae6:	b8 01 00 00 00       	mov    $0x1,%eax
c0106aeb:	eb 13                	jmp    c0106b00 <is_delim+0x33>
c0106aed:	83 45 0c 01          	addl   $0x1,0xc(%ebp)
c0106af1:	8b 45 0c             	mov    0xc(%ebp),%eax
c0106af4:	0f b6 00             	movzbl (%eax),%eax
c0106af7:	84 c0                	test   %al,%al
c0106af9:	75 e0                	jne    c0106adb <is_delim+0xe>
c0106afb:	b8 00 00 00 00       	mov    $0x0,%eax
c0106b00:	c9                   	leave
c0106b01:	c3                   	ret

c0106b02 <strtok>:
c0106b02:	55                   	push   %ebp
c0106b03:	89 e5                	mov    %esp,%ebp
c0106b05:	83 ec 10             	sub    $0x10,%esp
c0106b08:	83 7d 08 00          	cmpl   $0x0,0x8(%ebp)
c0106b0c:	75 08                	jne    c0106b16 <strtok+0x14>
c0106b0e:	a1 64 bd 10 c0       	mov    0xc010bd64,%eax
c0106b13:	89 45 08             	mov    %eax,0x8(%ebp)
c0106b16:	83 7d 08 00          	cmpl   $0x0,0x8(%ebp)
c0106b1a:	75 0a                	jne    c0106b26 <strtok+0x24>
c0106b1c:	b8 00 00 00 00       	mov    $0x0,%eax
c0106b21:	e9 85 00 00 00       	jmp    c0106bab <strtok+0xa9>
c0106b26:	8b 45 08             	mov    0x8(%ebp),%eax
c0106b29:	0f b6 00             	movzbl (%eax),%eax
c0106b2c:	0f be c0             	movsbl %al,%eax
c0106b2f:	ff 75 0c             	push   0xc(%ebp)
c0106b32:	50                   	push   %eax
c0106b33:	e8 95 ff ff ff       	call   c0106acd <is_delim>
c0106b38:	83 c4 08             	add    $0x8,%esp
c0106b3b:	85 c0                	test   %eax,%eax
c0106b3d:	74 06                	je     c0106b45 <strtok+0x43>
c0106b3f:	83 45 08 01          	addl   $0x1,0x8(%ebp)
c0106b43:	eb 11                	jmp    c0106b56 <strtok+0x54>
c0106b45:	8b 45 08             	mov    0x8(%ebp),%eax
c0106b48:	0f b6 00             	movzbl (%eax),%eax
c0106b4b:	84 c0                	test   %al,%al
c0106b4d:	75 09                	jne    c0106b58 <strtok+0x56>
c0106b4f:	b8 00 00 00 00       	mov    $0x0,%eax
c0106b54:	eb 55                	jmp    c0106bab <strtok+0xa9>
c0106b56:	eb ce                	jmp    c0106b26 <strtok+0x24>
c0106b58:	90                   	nop
c0106b59:	8b 45 08             	mov    0x8(%ebp),%eax
c0106b5c:	89 45 fc             	mov    %eax,-0x4(%ebp)
c0106b5f:	8b 45 08             	mov    0x8(%ebp),%eax
c0106b62:	0f b6 00             	movzbl (%eax),%eax
c0106b65:	84 c0                	test   %al,%al
c0106b67:	75 0d                	jne    c0106b76 <strtok+0x74>
c0106b69:	8b 45 08             	mov    0x8(%ebp),%eax
c0106b6c:	a3 64 bd 10 c0       	mov    %eax,0xc010bd64
c0106b71:	8b 45 fc             	mov    -0x4(%ebp),%eax
c0106b74:	eb 35                	jmp    c0106bab <strtok+0xa9>
c0106b76:	8b 45 08             	mov    0x8(%ebp),%eax
c0106b79:	0f b6 00             	movzbl (%eax),%eax
c0106b7c:	0f be c0             	movsbl %al,%eax
c0106b7f:	ff 75 0c             	push   0xc(%ebp)
c0106b82:	50                   	push   %eax
c0106b83:	e8 45 ff ff ff       	call   c0106acd <is_delim>
c0106b88:	83 c4 08             	add    $0x8,%esp
c0106b8b:	85 c0                	test   %eax,%eax
c0106b8d:	74 16                	je     c0106ba5 <strtok+0xa3>
c0106b8f:	8b 45 08             	mov    0x8(%ebp),%eax
c0106b92:	c6 00 00             	movb   $0x0,(%eax)
c0106b95:	8b 45 08             	mov    0x8(%ebp),%eax
c0106b98:	83 c0 01             	add    $0x1,%eax
c0106b9b:	a3 64 bd 10 c0       	mov    %eax,0xc010bd64
c0106ba0:	8b 45 fc             	mov    -0x4(%ebp),%eax
c0106ba3:	eb 06                	jmp    c0106bab <strtok+0xa9>
c0106ba5:	83 45 08 01          	addl   $0x1,0x8(%ebp)
c0106ba9:	eb b4                	jmp    c0106b5f <strtok+0x5d>
c0106bab:	c9                   	leave
c0106bac:	c3                   	ret

c0106bad <strcmp>:
c0106bad:	55                   	push   %ebp
c0106bae:	89 e5                	mov    %esp,%ebp
c0106bb0:	eb 08                	jmp    c0106bba <strcmp+0xd>
c0106bb2:	83 45 08 01          	addl   $0x1,0x8(%ebp)
c0106bb6:	83 45 0c 01          	addl   $0x1,0xc(%ebp)
c0106bba:	8b 45 08             	mov    0x8(%ebp),%eax
c0106bbd:	0f b6 00             	movzbl (%eax),%eax
c0106bc0:	84 c0                	test   %al,%al
c0106bc2:	74 10                	je     c0106bd4 <strcmp+0x27>
c0106bc4:	8b 45 08             	mov    0x8(%ebp),%eax
c0106bc7:	0f b6 10             	movzbl (%eax),%edx
c0106bca:	8b 45 0c             	mov    0xc(%ebp),%eax
c0106bcd:	0f b6 00             	movzbl (%eax),%eax
c0106bd0:	38 c2                	cmp    %al,%dl
c0106bd2:	74 de                	je     c0106bb2 <strcmp+0x5>
c0106bd4:	8b 45 08             	mov    0x8(%ebp),%eax
c0106bd7:	0f b6 00             	movzbl (%eax),%eax
c0106bda:	0f b6 d0             	movzbl %al,%edx
c0106bdd:	8b 45 0c             	mov    0xc(%ebp),%eax
c0106be0:	0f b6 00             	movzbl (%eax),%eax
c0106be3:	0f b6 c0             	movzbl %al,%eax
c0106be6:	29 c2                	sub    %eax,%edx
c0106be8:	89 d0                	mov    %edx,%eax
c0106bea:	5d                   	pop    %ebp
c0106beb:	c3                   	ret

c0106bec <strdup>:
c0106bec:	55                   	push   %ebp
c0106bed:	89 e5                	mov    %esp,%ebp
c0106bef:	83 ec 18             	sub    $0x18,%esp
c0106bf2:	83 ec 0c             	sub    $0xc,%esp
c0106bf5:	ff 75 08             	push   0x8(%ebp)
c0106bf8:	e8 b3 fe ff ff       	call   c0106ab0 <strlen>
c0106bfd:	83 c4 10             	add    $0x10,%esp
c0106c00:	83 c0 01             	add    $0x1,%eax
c0106c03:	83 ec 0c             	sub    $0xc,%esp
c0106c06:	50                   	push   %eax
c0106c07:	e8 84 01 00 00       	call   c0106d90 <malloc>
c0106c0c:	83 c4 10             	add    $0x10,%esp
c0106c0f:	89 45 f4             	mov    %eax,-0xc(%ebp)
c0106c12:	83 ec 08             	sub    $0x8,%esp
c0106c15:	ff 75 08             	push   0x8(%ebp)
c0106c18:	ff 75 f4             	push   -0xc(%ebp)
c0106c1b:	e8 4d fe ff ff       	call   c0106a6d <strcpy>
c0106c20:	83 c4 10             	add    $0x10,%esp
c0106c23:	8b 45 f4             	mov    -0xc(%ebp),%eax
c0106c26:	c9                   	leave
c0106c27:	c3                   	ret

c0106c28 <strchrnul>:
c0106c28:	55                   	push   %ebp
c0106c29:	89 e5                	mov    %esp,%ebp
c0106c2b:	eb 15                	jmp    c0106c42 <strchrnul+0x1a>
c0106c2d:	8b 45 08             	mov    0x8(%ebp),%eax
c0106c30:	8d 50 01             	lea    0x1(%eax),%edx
c0106c33:	89 55 08             	mov    %edx,0x8(%ebp)
c0106c36:	0f b6 00             	movzbl (%eax),%eax
c0106c39:	84 c0                	test   %al,%al
c0106c3b:	75 05                	jne    c0106c42 <strchrnul+0x1a>
c0106c3d:	8b 45 08             	mov    0x8(%ebp),%eax
c0106c40:	eb 10                	jmp    c0106c52 <strchrnul+0x2a>
c0106c42:	8b 45 08             	mov    0x8(%ebp),%eax
c0106c45:	0f b6 00             	movzbl (%eax),%eax
c0106c48:	8b 55 0c             	mov    0xc(%ebp),%edx
c0106c4b:	38 d0                	cmp    %dl,%al
c0106c4d:	75 de                	jne    c0106c2d <strchrnul+0x5>
c0106c4f:	8b 45 08             	mov    0x8(%ebp),%eax
c0106c52:	5d                   	pop    %ebp
c0106c53:	c3                   	ret

c0106c54 <strcspn>:
c0106c54:	55                   	push   %ebp
c0106c55:	89 e5                	mov    %esp,%ebp
c0106c57:	56                   	push   %esi
c0106c58:	53                   	push   %ebx
c0106c59:	83 ec 30             	sub    $0x30,%esp
c0106c5c:	8b 45 08             	mov    0x8(%ebp),%eax
c0106c5f:	89 45 f4             	mov    %eax,-0xc(%ebp)
c0106c62:	8b 45 0c             	mov    0xc(%ebp),%eax
c0106c65:	0f b6 00             	movzbl (%eax),%eax
c0106c68:	84 c0                	test   %al,%al
c0106c6a:	74 0d                	je     c0106c79 <strcspn+0x25>
c0106c6c:	8b 45 0c             	mov    0xc(%ebp),%eax
c0106c6f:	83 c0 01             	add    $0x1,%eax
c0106c72:	0f b6 00             	movzbl (%eax),%eax
c0106c75:	84 c0                	test   %al,%al
c0106c77:	75 20                	jne    c0106c99 <strcspn+0x45>
c0106c79:	8b 45 0c             	mov    0xc(%ebp),%eax
c0106c7c:	0f b6 00             	movzbl (%eax),%eax
c0106c7f:	0f be c0             	movsbl %al,%eax
c0106c82:	83 ec 08             	sub    $0x8,%esp
c0106c85:	50                   	push   %eax
c0106c86:	ff 75 08             	push   0x8(%ebp)
c0106c89:	e8 9a ff ff ff       	call   c0106c28 <strchrnul>
c0106c8e:	83 c4 10             	add    $0x10,%esp
c0106c91:	2b 45 f4             	sub    -0xc(%ebp),%eax
c0106c94:	e9 9a 00 00 00       	jmp    c0106d33 <strcspn+0xdf>
c0106c99:	83 ec 04             	sub    $0x4,%esp
c0106c9c:	6a 20                	push   $0x20
c0106c9e:	6a 00                	push   $0x0
c0106ca0:	8d 45 d4             	lea    -0x2c(%ebp),%eax
c0106ca3:	50                   	push   %eax
c0106ca4:	e8 86 fc ff ff       	call   c010692f <memset>
c0106ca9:	83 c4 10             	add    $0x10,%esp
c0106cac:	eb 04                	jmp    c0106cb2 <strcspn+0x5e>
c0106cae:	83 45 0c 01          	addl   $0x1,0xc(%ebp)
c0106cb2:	8b 45 0c             	mov    0xc(%ebp),%eax
c0106cb5:	0f b6 00             	movzbl (%eax),%eax
c0106cb8:	84 c0                	test   %al,%al
c0106cba:	74 3e                	je     c0106cfa <strcspn+0xa6>
c0106cbc:	8b 45 0c             	mov    0xc(%ebp),%eax
c0106cbf:	0f b6 00             	movzbl (%eax),%eax
c0106cc2:	c0 e8 05             	shr    $0x5,%al
c0106cc5:	0f b6 d0             	movzbl %al,%edx
c0106cc8:	8b 5c 95 d4          	mov    -0x2c(%ebp,%edx,4),%ebx
c0106ccc:	8b 55 0c             	mov    0xc(%ebp),%edx
c0106ccf:	0f b6 12             	movzbl (%edx),%edx
c0106cd2:	0f b6 d2             	movzbl %dl,%edx
c0106cd5:	83 e2 1f             	and    $0x1f,%edx
c0106cd8:	be 01 00 00 00       	mov    $0x1,%esi
c0106cdd:	89 d1                	mov    %edx,%ecx
c0106cdf:	d3 e6                	shl    %cl,%esi
c0106ce1:	89 f2                	mov    %esi,%edx
c0106ce3:	0f b6 c0             	movzbl %al,%eax
c0106ce6:	09 da                	or     %ebx,%edx
c0106ce8:	89 54 85 d4          	mov    %edx,-0x2c(%ebp,%eax,4)
c0106cec:	8b 44 85 d4          	mov    -0x2c(%ebp,%eax,4),%eax
c0106cf0:	85 c0                	test   %eax,%eax
c0106cf2:	75 ba                	jne    c0106cae <strcspn+0x5a>
c0106cf4:	eb 04                	jmp    c0106cfa <strcspn+0xa6>
c0106cf6:	83 45 08 01          	addl   $0x1,0x8(%ebp)
c0106cfa:	8b 45 08             	mov    0x8(%ebp),%eax
c0106cfd:	0f b6 00             	movzbl (%eax),%eax
c0106d00:	84 c0                	test   %al,%al
c0106d02:	74 29                	je     c0106d2d <strcspn+0xd9>
c0106d04:	8b 45 08             	mov    0x8(%ebp),%eax
c0106d07:	0f b6 00             	movzbl (%eax),%eax
c0106d0a:	c0 e8 05             	shr    $0x5,%al
c0106d0d:	0f b6 c0             	movzbl %al,%eax
c0106d10:	8b 54 85 d4          	mov    -0x2c(%ebp,%eax,4),%edx
c0106d14:	8b 45 08             	mov    0x8(%ebp),%eax
c0106d17:	0f b6 00             	movzbl (%eax),%eax
c0106d1a:	0f b6 c0             	movzbl %al,%eax
c0106d1d:	83 e0 1f             	and    $0x1f,%eax
c0106d20:	89 c1                	mov    %eax,%ecx
c0106d22:	d3 ea                	shr    %cl,%edx
c0106d24:	89 d0                	mov    %edx,%eax
c0106d26:	83 e0 01             	and    $0x1,%eax
c0106d29:	85 c0                	test   %eax,%eax
c0106d2b:	74 c9                	je     c0106cf6 <strcspn+0xa2>
c0106d2d:	8b 45 08             	mov    0x8(%ebp),%eax
c0106d30:	2b 45 f4             	sub    -0xc(%ebp),%eax
c0106d33:	8d 65 f8             	lea    -0x8(%ebp),%esp
c0106d36:	5b                   	pop    %ebx
c0106d37:	5e                   	pop    %esi
c0106d38:	5d                   	pop    %ebp
c0106d39:	c3                   	ret

c0106d3a <strncmp>:
c0106d3a:	55                   	push   %ebp
c0106d3b:	89 e5                	mov    %esp,%ebp
c0106d3d:	eb 0c                	jmp    c0106d4b <strncmp+0x11>
c0106d3f:	83 45 08 01          	addl   $0x1,0x8(%ebp)
c0106d43:	83 45 0c 01          	addl   $0x1,0xc(%ebp)
c0106d47:	83 6d 10 01          	subl   $0x1,0x10(%ebp)
c0106d4b:	83 7d 10 00          	cmpl   $0x0,0x10(%ebp)
c0106d4f:	74 1a                	je     c0106d6b <strncmp+0x31>
c0106d51:	8b 45 08             	mov    0x8(%ebp),%eax
c0106d54:	0f b6 00             	movzbl (%eax),%eax
c0106d57:	84 c0                	test   %al,%al
c0106d59:	74 10                	je     c0106d6b <strncmp+0x31>
c0106d5b:	8b 45 08             	mov    0x8(%ebp),%eax
c0106d5e:	0f b6 10             	movzbl (%eax),%edx
c0106d61:	8b 45 0c             	mov    0xc(%ebp),%eax
c0106d64:	0f b6 00             	movzbl (%eax),%eax
c0106d67:	38 c2                	cmp    %al,%dl
c0106d69:	74 d4                	je     c0106d3f <strncmp+0x5>
c0106d6b:	83 7d 10 00          	cmpl   $0x0,0x10(%ebp)
c0106d6f:	75 07                	jne    c0106d78 <strncmp+0x3e>
c0106d71:	ba 00 00 00 00       	mov    $0x0,%edx
c0106d76:	eb 14                	jmp    c0106d8c <strncmp+0x52>
c0106d78:	8b 45 08             	mov    0x8(%ebp),%eax
c0106d7b:	0f b6 00             	movzbl (%eax),%eax
c0106d7e:	0f b6 d0             	movzbl %al,%edx
c0106d81:	8b 45 0c             	mov    0xc(%ebp),%eax
c0106d84:	0f b6 00             	movzbl (%eax),%eax
c0106d87:	0f b6 c0             	movzbl %al,%eax
c0106d8a:	29 c2                	sub    %eax,%edx
c0106d8c:	89 d0                	mov    %edx,%eax
c0106d8e:	5d                   	pop    %ebp
c0106d8f:	c3                   	ret

c0106d90 <malloc>:
c0106d90:	55                   	push   %ebp
c0106d91:	89 e5                	mov    %esp,%ebp
c0106d93:	83 ec 08             	sub    $0x8,%esp
c0106d96:	83 ec 0c             	sub    $0xc,%esp
c0106d99:	ff 75 08             	push   0x8(%ebp)
c0106d9c:	e8 50 a9 ff ff       	call   c01016f1 <_malloc>
c0106da1:	83 c4 10             	add    $0x10,%esp
c0106da4:	c9                   	leave
c0106da5:	c3                   	ret

c0106da6 <__udivdi3>:
c0106da6:	55                   	push   %ebp
c0106da7:	89 e5                	mov    %esp,%ebp
c0106da9:	83 ec 18             	sub    $0x18,%esp
c0106dac:	8b 45 08             	mov    0x8(%ebp),%eax
c0106daf:	89 45 f0             	mov    %eax,-0x10(%ebp)
c0106db2:	8b 45 0c             	mov    0xc(%ebp),%eax
c0106db5:	89 45 f4             	mov    %eax,-0xc(%ebp)
c0106db8:	8b 45 10             	mov    0x10(%ebp),%eax
c0106dbb:	89 45 e8             	mov    %eax,-0x18(%ebp)
c0106dbe:	8b 45 14             	mov    0x14(%ebp),%eax
c0106dc1:	89 45 ec             	mov    %eax,-0x14(%ebp)
c0106dc4:	83 ec 0c             	sub    $0xc,%esp
c0106dc7:	6a 00                	push   $0x0
c0106dc9:	ff 75 ec             	push   -0x14(%ebp)
c0106dcc:	ff 75 e8             	push   -0x18(%ebp)
c0106dcf:	ff 75 f4             	push   -0xc(%ebp)
c0106dd2:	ff 75 f0             	push   -0x10(%ebp)
c0106dd5:	e8 46 00 00 00       	call   c0106e20 <__udivmoddi4>
c0106dda:	83 c4 20             	add    $0x20,%esp
c0106ddd:	c9                   	leave
c0106dde:	c3                   	ret

c0106ddf <__umoddi3>:
c0106ddf:	55                   	push   %ebp
c0106de0:	89 e5                	mov    %esp,%ebp
c0106de2:	83 ec 28             	sub    $0x28,%esp
c0106de5:	8b 45 08             	mov    0x8(%ebp),%eax
c0106de8:	89 45 e0             	mov    %eax,-0x20(%ebp)
c0106deb:	8b 45 0c             	mov    0xc(%ebp),%eax
c0106dee:	89 45 e4             	mov    %eax,-0x1c(%ebp)
c0106df1:	8b 45 10             	mov    0x10(%ebp),%eax
c0106df4:	89 45 d8             	mov    %eax,-0x28(%ebp)
c0106df7:	8b 45 14             	mov    0x14(%ebp),%eax
c0106dfa:	89 45 dc             	mov    %eax,-0x24(%ebp)
c0106dfd:	83 ec 0c             	sub    $0xc,%esp
c0106e00:	8d 45 f0             	lea    -0x10(%ebp),%eax
c0106e03:	50                   	push   %eax
c0106e04:	ff 75 dc             	push   -0x24(%ebp)
c0106e07:	ff 75 d8             	push   -0x28(%ebp)
c0106e0a:	ff 75 e4             	push   -0x1c(%ebp)
c0106e0d:	ff 75 e0             	push   -0x20(%ebp)
c0106e10:	e8 0b 00 00 00       	call   c0106e20 <__udivmoddi4>
c0106e15:	83 c4 20             	add    $0x20,%esp
c0106e18:	8b 45 f0             	mov    -0x10(%ebp),%eax
c0106e1b:	8b 55 f4             	mov    -0xc(%ebp),%edx
c0106e1e:	c9                   	leave
c0106e1f:	c3                   	ret

c0106e20 <__udivmoddi4>:
c0106e20:	55                   	push   %ebp
c0106e21:	89 e5                	mov    %esp,%ebp
c0106e23:	83 ec 20             	sub    $0x20,%esp
c0106e26:	8b 45 08             	mov    0x8(%ebp),%eax
c0106e29:	89 45 e8             	mov    %eax,-0x18(%ebp)
c0106e2c:	8b 45 0c             	mov    0xc(%ebp),%eax
c0106e2f:	89 45 ec             	mov    %eax,-0x14(%ebp)
c0106e32:	8b 45 10             	mov    0x10(%ebp),%eax
c0106e35:	89 45 e0             	mov    %eax,-0x20(%ebp)
c0106e38:	8b 45 14             	mov    0x14(%ebp),%eax
c0106e3b:	89 45 e4             	mov    %eax,-0x1c(%ebp)
c0106e3e:	c7 45 f8 00 00 00 00 	movl   $0x0,-0x8(%ebp)
c0106e45:	c7 45 fc 00 00 00 00 	movl   $0x0,-0x4(%ebp)
c0106e4c:	c7 45 f0 01 00 00 00 	movl   $0x1,-0x10(%ebp)
c0106e53:	c7 45 f4 00 00 00 00 	movl   $0x0,-0xc(%ebp)
c0106e5a:	8b 45 e0             	mov    -0x20(%ebp),%eax
c0106e5d:	8b 55 e4             	mov    -0x1c(%ebp),%edx
c0106e60:	09 d0                	or     %edx,%eax
c0106e62:	85 c0                	test   %eax,%eax
c0106e64:	75 3a                	jne    c0106ea0 <__udivmoddi4+0x80>
c0106e66:	8b 45 e0             	mov    -0x20(%ebp),%eax
c0106e69:	83 f8 01             	cmp    $0x1,%eax
c0106e6c:	0f 94 c1             	sete   %cl
c0106e6f:	0f b6 c1             	movzbl %cl,%eax
c0106e72:	ba 00 00 00 00       	mov    $0x0,%edx
c0106e77:	e9 a2 00 00 00       	jmp    c0106f1e <__udivmoddi4+0xfe>
c0106e7c:	8b 45 e0             	mov    -0x20(%ebp),%eax
c0106e7f:	8b 55 e4             	mov    -0x1c(%ebp),%edx
c0106e82:	0f a4 c2 01          	shld   $0x1,%eax,%edx
c0106e86:	01 c0                	add    %eax,%eax
c0106e88:	89 45 e0             	mov    %eax,-0x20(%ebp)
c0106e8b:	89 55 e4             	mov    %edx,-0x1c(%ebp)
c0106e8e:	8b 45 f0             	mov    -0x10(%ebp),%eax
c0106e91:	8b 55 f4             	mov    -0xc(%ebp),%edx
c0106e94:	0f a4 c2 01          	shld   $0x1,%eax,%edx
c0106e98:	01 c0                	add    %eax,%eax
c0106e9a:	89 45 f0             	mov    %eax,-0x10(%ebp)
c0106e9d:	89 55 f4             	mov    %edx,-0xc(%ebp)
c0106ea0:	8b 45 e0             	mov    -0x20(%ebp),%eax
c0106ea3:	8b 55 e4             	mov    -0x1c(%ebp),%edx
c0106ea6:	85 d2                	test   %edx,%edx
c0106ea8:	79 d2                	jns    c0106e7c <__udivmoddi4+0x5c>
c0106eaa:	eb 4c                	jmp    c0106ef8 <__udivmoddi4+0xd8>
c0106eac:	8b 45 e0             	mov    -0x20(%ebp),%eax
c0106eaf:	8b 55 e4             	mov    -0x1c(%ebp),%edx
c0106eb2:	8b 4d ec             	mov    -0x14(%ebp),%ecx
c0106eb5:	39 45 e8             	cmp    %eax,-0x18(%ebp)
c0106eb8:	19 d1                	sbb    %edx,%ecx
c0106eba:	72 18                	jb     c0106ed4 <__udivmoddi4+0xb4>
c0106ebc:	8b 45 e0             	mov    -0x20(%ebp),%eax
c0106ebf:	8b 55 e4             	mov    -0x1c(%ebp),%edx
c0106ec2:	29 45 e8             	sub    %eax,-0x18(%ebp)
c0106ec5:	19 55 ec             	sbb    %edx,-0x14(%ebp)
c0106ec8:	8b 45 f0             	mov    -0x10(%ebp),%eax
c0106ecb:	8b 55 f4             	mov    -0xc(%ebp),%edx
c0106ece:	01 45 f8             	add    %eax,-0x8(%ebp)
c0106ed1:	11 55 fc             	adc    %edx,-0x4(%ebp)
c0106ed4:	8b 45 e0             	mov    -0x20(%ebp),%eax
c0106ed7:	8b 55 e4             	mov    -0x1c(%ebp),%edx
c0106eda:	0f ac d0 01          	shrd   $0x1,%edx,%eax
c0106ede:	d1 ea                	shr    %edx
c0106ee0:	89 45 e0             	mov    %eax,-0x20(%ebp)
c0106ee3:	89 55 e4             	mov    %edx,-0x1c(%ebp)
c0106ee6:	8b 45 f0             	mov    -0x10(%ebp),%eax
c0106ee9:	8b 55 f4             	mov    -0xc(%ebp),%edx
c0106eec:	0f ac d0 01          	shrd   $0x1,%edx,%eax
c0106ef0:	d1 ea                	shr    %edx
c0106ef2:	89 45 f0             	mov    %eax,-0x10(%ebp)
c0106ef5:	89 55 f4             	mov    %edx,-0xc(%ebp)
c0106ef8:	8b 45 f0             	mov    -0x10(%ebp),%eax
c0106efb:	8b 55 f4             	mov    -0xc(%ebp),%edx
c0106efe:	09 d0                	or     %edx,%eax
c0106f00:	85 c0                	test   %eax,%eax
c0106f02:	75 a8                	jne    c0106eac <__udivmoddi4+0x8c>
c0106f04:	83 7d 18 00          	cmpl   $0x0,0x18(%ebp)
c0106f08:	74 0e                	je     c0106f18 <__udivmoddi4+0xf8>
c0106f0a:	8b 4d 18             	mov    0x18(%ebp),%ecx
c0106f0d:	8b 45 e8             	mov    -0x18(%ebp),%eax
c0106f10:	8b 55 ec             	mov    -0x14(%ebp),%edx
c0106f13:	89 01                	mov    %eax,(%ecx)
c0106f15:	89 51 04             	mov    %edx,0x4(%ecx)
c0106f18:	8b 45 f8             	mov    -0x8(%ebp),%eax
c0106f1b:	8b 55 fc             	mov    -0x4(%ebp),%edx
c0106f1e:	c9                   	leave
c0106f1f:	c3                   	ret
